///////////////////////////////////////////////////////////////////////////////
//                                                                            /
// IAR C/C++ Compiler V8.10.1.40194/W32 for 8051        27/Nov/2024  14:08:34 /
// Copyright 2004-2011 IAR Systems AB.                                        /
//                                                                            /
//    Core               =  plain                                             /
//    Code model         =  banked                                            /
//    Data model         =  large                                             /
//    Calling convention =  xdata reentrant                                   /
//    Constant location  =  data_rom                                          /
//    Dptr setup         =  1,16                                              /
//    Source file        =  F:\ACAD\硕士\A毕设小车\ZStack-CC2530-2.5.1a\Proje /
//                          cts\zstack\Samples\GenericApp\Source\enddevice.c  /
//    Command line       =  -f F:\ACAD\硕士\A毕设小车\ZStack-CC2530-2.5.1a\Pr /
//                          ojects\zstack\Samples\GenericApp\CC2530DB\..\..\. /
//                          .\Tools\CC2530DB\f8wEndev.cfg (-DCPU32MHZ         /
//                          -DROOT=__near_func -DMAC_CFG_TX_DATA_MAX=3        /
//                          -DMAC_CFG_TX_MAX=6 -DMAC_CFG_RX_MAX=3) -f         /
//                          F:\ACAD\硕士\A毕设小车\ZStack-CC2530-2.5.1a\Proje /
//                          cts\zstack\Samples\GenericApp\CC2530DB\..\..\..\T /
//                          ools\CC2530DB\f8wConfig.cfg (-DZIGBEEPRO          /
//                          -DSECURE=0 -DZG_SECURE_DYNAMIC=0 -DREFLECTOR      /
//                          -DDEFAULT_CHANLIST=0x00000800                     /
//                          -DZDAPP_CONFIG_PAN_ID=0xFFFF                      /
//                          -DNWK_START_DELAY=100 -DEXTENDED_JOINING_RANDOM_M /
//                          ASK=0x007F -DBEACON_REQUEST_DELAY=100             /
//                          -DBEACON_REQ_DELAY_MASK=0x00FF                    /
//                          -DLINK_STATUS_JITTER_MASK=0x007F                  /
//                          -DROUTE_EXPIRY_TIME=30 -DAPSC_ACK_WAIT_DURATION_P /
//                          OLLED=3000 -DNWK_INDIRECT_MSG_TIMEOUT=7           /
//                          -DMAX_RREQ_ENTRIES=8 -DAPSC_MAX_FRAME_RETRIES=3   /
//                          -DNWK_MAX_DATA_RETRIES=2                          /
//                          -DMAX_POLL_FAILURE_RETRIES=2 -DMAX_BCAST=9        /
//                          -DAPS_MAX_GROUPS=16 -DMAX_RTG_ENTRIES=40          /
//                          -DNWK_MAX_BINDING_ENTRIES=4                       /
//                          -DMAX_BINDING_CLUSTER_IDS=4                       /
//                          "-DDEFAULT_KEY={0x01, 0x03, 0x05, 0x07, 0x09,     /
//                          0x0B, 0x0D, 0x0F, 0x00, 0x02, 0x04, 0x06, 0x08,   /
//                          0x0A, 0x0C, 0x0D}" -DMAC_MAX_FRAME_SIZE=116       /
//                          -DZDNWKMGR_MIN_TRANSMISSIONS=20 "-DCONST=const    /
//                          __code" -DGENERIC=__generic                       /
//                          -DRFD_RCVC_ALWAYS_ON=FALSE -DPOLL_RATE=1000       /
//                          -DQUEUED_POLL_RATE=100 -DRESPONSE_POLL_RATE=100)  /
//                          -DREJOIN_POLL_RATE=440 F:\ACAD\硕士\A毕设小车\ZSt /
//                          ack-CC2530-2.5.1a\Projects\zstack\Samples\Generic /
//                          App\Source\enddevice.c -D NWK_AUTO_POLL -D        /
//                          ZTOOL_P1 -D MT_TASK -D MT_SYS_FUNC -D             /
//                          MT_ZDO_FUNC -D LCD_SUPPORTED=DEBUG -D             /
//                          xPOWER_SAVING -lC F:\ACAD\硕士\A毕设小车\ZStack-C /
//                          C2530-2.5.1a\Projects\zstack\Samples\GenericApp\C /
//                          C2530DB\EndDeviceEB\List\ -lA                     /
//                          F:\ACAD\硕士\A毕设小车\ZStack-CC2530-2.5.1a\Proje /
//                          cts\zstack\Samples\GenericApp\CC2530DB\EndDeviceE /
//                          B\List\ --diag_suppress Pe001,Pa010 -o            /
//                          F:\ACAD\硕士\A毕设小车\ZStack-CC2530-2.5.1a\Proje /
//                          cts\zstack\Samples\GenericApp\CC2530DB\EndDeviceE /
//                          B\Obj\ -e --no_code_motion --debug --core=plain   /
//                          --dptr=16,1 --data_model=large                    /
//                          --code_model=banked --calling_convention=xdata_re /
//                          entrant --place_constants=data_rom                /
//                          --nr_virtual_regs 16 -I                           /
//                          F:\ACAD\硕士\A毕设小车\ZStack-CC2530-2.5.1a\Proje /
//                          cts\zstack\Samples\GenericApp\CC2530DB\ -I        /
//                          F:\ACAD\硕士\A毕设小车\ZStack-CC2530-2.5.1a\Proje /
//                          cts\zstack\Samples\GenericApp\CC2530DB\..\Source\ /
//                           -I F:\ACAD\硕士\A毕设小车\ZStack-CC2530-2.5.1a\P /
//                          rojects\zstack\Samples\GenericApp\CC2530DB\..\..\ /
//                          ..\ZMain\TI2530DB\ -I F:\ACAD\硕士\A毕设小车\ZSta /
//                          ck-CC2530-2.5.1a\Projects\zstack\Samples\GenericA /
//                          pp\CC2530DB\..\..\..\..\..\Components\hal\include /
//                          \ -I F:\ACAD\硕士\A毕设小车\ZStack-CC2530-2.5.1a\ /
//                          Projects\zstack\Samples\GenericApp\CC2530DB\..\.. /
//                          \..\..\..\Components\hal\target\CC2530EB\ -I      /
//                          F:\ACAD\硕士\A毕设小车\ZStack-CC2530-2.5.1a\Proje /
//                          cts\zstack\Samples\GenericApp\CC2530DB\..\..\..\. /
//                          .\..\Components\mac\include\ -I                   /
//                          F:\ACAD\硕士\A毕设小车\ZStack-CC2530-2.5.1a\Proje /
//                          cts\zstack\Samples\GenericApp\CC2530DB\..\..\..\. /
//                          .\..\Components\mac\high_level\ -I                /
//                          F:\ACAD\硕士\A毕设小车\ZStack-CC2530-2.5.1a\Proje /
//                          cts\zstack\Samples\GenericApp\CC2530DB\..\..\..\. /
//                          .\..\Components\mac\low_level\srf04\ -I           /
//                          F:\ACAD\硕士\A毕设小车\ZStack-CC2530-2.5.1a\Proje /
//                          cts\zstack\Samples\GenericApp\CC2530DB\..\..\..\. /
//                          .\..\Components\mac\low_level\srf04\single_chip\  /
//                          -I F:\ACAD\硕士\A毕设小车\ZStack-CC2530-2.5.1a\Pr /
//                          ojects\zstack\Samples\GenericApp\CC2530DB\..\..\. /
//                          .\..\..\Components\mt\ -I                         /
//                          F:\ACAD\硕士\A毕设小车\ZStack-CC2530-2.5.1a\Proje /
//                          cts\zstack\Samples\GenericApp\CC2530DB\..\..\..\. /
//                          .\..\Components\osal\include\ -I                  /
//                          F:\ACAD\硕士\A毕设小车\ZStack-CC2530-2.5.1a\Proje /
//                          cts\zstack\Samples\GenericApp\CC2530DB\..\..\..\. /
//                          .\..\Components\services\saddr\ -I                /
//                          F:\ACAD\硕士\A毕设小车\ZStack-CC2530-2.5.1a\Proje /
//                          cts\zstack\Samples\GenericApp\CC2530DB\..\..\..\. /
//                          .\..\Components\services\sdata\ -I                /
//                          F:\ACAD\硕士\A毕设小车\ZStack-CC2530-2.5.1a\Proje /
//                          cts\zstack\Samples\GenericApp\CC2530DB\..\..\..\. /
//                          .\..\Components\stack\af\ -I                      /
//                          F:\ACAD\硕士\A毕设小车\ZStack-CC2530-2.5.1a\Proje /
//                          cts\zstack\Samples\GenericApp\CC2530DB\..\..\..\. /
//                          .\..\Components\stack\nwk\ -I                     /
//                          F:\ACAD\硕士\A毕设小车\ZStack-CC2530-2.5.1a\Proje /
//                          cts\zstack\Samples\GenericApp\CC2530DB\..\..\..\. /
//                          .\..\Components\stack\sapi\ -I                    /
//                          F:\ACAD\硕士\A毕设小车\ZStack-CC2530-2.5.1a\Proje /
//                          cts\zstack\Samples\GenericApp\CC2530DB\..\..\..\. /
//                          .\..\Components\stack\sec\ -I                     /
//                          F:\ACAD\硕士\A毕设小车\ZStack-CC2530-2.5.1a\Proje /
//                          cts\zstack\Samples\GenericApp\CC2530DB\..\..\..\. /
//                          .\..\Components\stack\sys\ -I                     /
//                          F:\ACAD\硕士\A毕设小车\ZStack-CC2530-2.5.1a\Proje /
//                          cts\zstack\Samples\GenericApp\CC2530DB\..\..\..\. /
//                          .\..\Components\stack\zdo\ -I                     /
//                          F:\ACAD\硕士\A毕设小车\ZStack-CC2530-2.5.1a\Proje /
//                          cts\zstack\Samples\GenericApp\CC2530DB\..\..\..\. /
//                          .\..\Components\zmac\ -I                          /
//                          F:\ACAD\硕士\A毕设小车\ZStack-CC2530-2.5.1a\Proje /
//                          cts\zstack\Samples\GenericApp\CC2530DB\..\..\..\. /
//                          .\..\Components\zmac\f8w\ -Ohz                    /
//                          --require_prototypes                              /
//    List file          =  F:\ACAD\硕士\A毕设小车\ZStack-CC2530-2.5.1a\Proje /
//                          cts\zstack\Samples\GenericApp\CC2530DB\EndDeviceE /
//                          B\List\enddevice.s51                              /
//                                                                            /
//                                                                            /
///////////////////////////////////////////////////////////////////////////////

        NAME enddevice

        RTMODEL "__SystemLibrary", "CLib"
        RTMODEL "__calling_convention", "xdata_reentrant"
        RTMODEL "__code_model", "banked"
        RTMODEL "__core", "plain"
        RTMODEL "__data_model", "large"
        RTMODEL "__dptr_size", "16"
        RTMODEL "__extended_stack", "disabled"
        RTMODEL "__location_for_constants", "data"
        RTMODEL "__number_of_dptrs", "1"
        RTMODEL "__rt_version", "1"

        RSEG DOVERLAY:DATA:NOROOT(0)
        RSEG IOVERLAY:IDATA:NOROOT(0)
        RSEG ISTACK:IDATA:NOROOT(0)
        RSEG PSTACK:XDATA:NOROOT(0)
        RSEG XSTACK:XDATA:NOROOT(0)

        EXTERN ?ALLOC_XSTACK8
        EXTERN ?BANKED_ENTER_XDATA
        EXTERN ?BANKED_LEAVE_XDATA
        EXTERN ?BDISPATCH
        EXTERN ?BRET
        EXTERN ?DEALLOC_XSTACK8
        EXTERN ?PUSH_XSTACK_I_ONE
        EXTERN ?PUSH_XSTACK_I_THREE
        EXTERN ?PUSH_XSTACK_I_TWO
        EXTERN ?US_DIV_MOD
        EXTERN ?US_SWITCH_SPARSE
        EXTERN ?V0
        EXTERN ?XSP
        EXTERN ?XSTACK_DISP0_8
        EXTERN __INIT_XDATA_I
        EXTERN __INIT_XDATA_Z

        PUBLIC ??GenericApp_Init?relay
        FUNCTION ??GenericApp_Init?relay,0203H
        PUBLIC ??GenericApp_ProcessEvent?relay
        FUNCTION ??GenericApp_ProcessEvent?relay,0203H
        PUBLIC ??GenericApp_Send_GAN_Message?relay
        FUNCTION ??GenericApp_Send_GAN_Message?relay,0203H
        PUBLIC ??GenericApp_Send_Guangqiang_Message?relay
        FUNCTION ??GenericApp_Send_Guangqiang_Message?relay,0203H
        PUBLIC ??GenericApp_Send_rentihongwai_Message?relay
        FUNCTION ??GenericApp_Send_rentihongwai_Message?relay,0203H
        PUBLIC ??GenericApp_Send_wedu_Message?relay
        FUNCTION ??GenericApp_Send_wedu_Message?relay,0203H
        PUBLIC ??GenericApp_Send_wenshidu_Message?relay
        FUNCTION ??GenericApp_Send_wenshidu_Message?relay,0203H
        PUBLIC ??myApp_ReadGasLevel?relay
        FUNCTION ??myApp_ReadGasLevel?relay,0203H
        PUBLIC ??myApp_ReadLightLevel?relay
        FUNCTION ??myApp_ReadLightLevel?relay,0203H
        PUBWEAK ADCCFG
        PUBWEAK ADCCON1
        PUBWEAK ADCCON3
        PUBWEAK ADCH
        PUBLIC GenericApp_ClusterList
        PUBLIC GenericApp_DstAddr
        PUBLIC GenericApp_Init
        FUNCTION GenericApp_Init,021203H
        ARGFRAME XSTACK, 0, STACK
        LOCFRAME XSTACK, 9, STACK
        PUBLIC GenericApp_NwkState
        PUBLIC GenericApp_ProcessEvent
        FUNCTION GenericApp_ProcessEvent,0a1203H
        ARGFRAME XSTACK, 0, STACK
        LOCFRAME XSTACK, 35, STACK
        PUBLIC GenericApp_Send_GAN_Message
        FUNCTION GenericApp_Send_GAN_Message,0203H
        ARGFRAME XSTACK, 0, STACK
        PUBLIC GenericApp_Send_Guangqiang_Message
        FUNCTION GenericApp_Send_Guangqiang_Message,0203H
        ARGFRAME XSTACK, 0, STACK
        PUBLIC GenericApp_Send_rentihongwai_Message
        FUNCTION GenericApp_Send_rentihongwai_Message,0203H
        ARGFRAME XSTACK, 0, STACK
        PUBLIC GenericApp_Send_wedu_Message
        FUNCTION GenericApp_Send_wedu_Message,0203H
        ARGFRAME XSTACK, 0, STACK
        PUBLIC GenericApp_Send_wenshidu_Message
        FUNCTION GenericApp_Send_wenshidu_Message,021203H
        ARGFRAME XSTACK, 26, STACK
        ARGFRAME IOVERLAY, 0, STATIC
        ARGFRAME DOVERLAY, 0, STATIC
        LOCFRAME ISTACK, 1, STACK
        LOCFRAME XSTACK, 33, STACK
        PUBLIC GenericApp_SimpleDesc
        PUBLIC GenericApp_TaskID
        PUBLIC GenericApp_TransID
        PUBLIC GenericApp_epDesc
        PUBWEAK P1DIR
        PUBWEAK _A_P0
        PUBWEAK _A_P1
        PUBLIC bianhaoID
        PUBLIC myApp_ReadGasLevel
        FUNCTION myApp_ReadGasLevel,0203H
        ARGFRAME XSTACK, 24, STACK
        ARGFRAME IOVERLAY, 0, STATIC
        ARGFRAME DOVERLAY, 0, STATIC
        PUBLIC myApp_ReadLightLevel
        FUNCTION myApp_ReadLightLevel,0203H
        ARGFRAME XSTACK, 24, STACK
        ARGFRAME IOVERLAY, 0, STATIC
        ARGFRAME DOVERLAY, 0, STATIC
        
        CFI Names cfiNames0
        CFI StackFrame CFA_SP SP IDATA
        CFI StackFrame CFA_PSP16 PSP16 XDATA
        CFI StackFrame CFA_XSP16 XSP16 XDATA
        CFI StaticOverlayFrame CFA_IOVERLAY IOVERLAY
        CFI StaticOverlayFrame CFA_DOVERLAY DOVERLAY
        CFI Resource `PSW.CY`:1, `B.BR0`:1, `B.BR1`:1, `B.BR2`:1, `B.BR3`:1
        CFI Resource `B.BR4`:1, `B.BR5`:1, `B.BR6`:1, `B.BR7`:1, `VB.BR8`:1
        CFI Resource `VB.BR9`:1, `VB.BR10`:1, `VB.BR11`:1, `VB.BR12`:1
        CFI Resource `VB.BR13`:1, `VB.BR14`:1, `VB.BR15`:1, VB:8, B:8, A:8
        CFI Resource PSW:8, DPL0:8, DPH0:8, R0:8, R1:8, R2:8, R3:8, R4:8, R5:8
        CFI Resource R6:8, R7:8, V0:8, V1:8, V2:8, V3:8, V4:8, V5:8, V6:8, V7:8
        CFI Resource V8:8, V9:8, V10:8, V11:8, V12:8, V13:8, V14:8, V15:8, SP:8
        CFI Resource PSPH:8, PSPL:8, PSP16:16, XSPH:8, XSPL:8, XSP16:16
        CFI VirtualResource ?RET:24
        CFI Resource ?BRET_EXT:8
        CFI VirtualResource ?RET_HIGH:8, ?RET_LOW:8
        CFI ResourceParts PSP16 PSPH, PSPL
        CFI ResourceParts XSP16 XSPH, XSPL
        CFI ResourceParts ?RET ?BRET_EXT, ?RET_HIGH, ?RET_LOW
        CFI EndNames cfiNames0
        
        CFI Common cfiCommon0 Using cfiNames0
        CFI CodeAlign 1
        CFI DataAlign -1
        CFI ReturnAddress ?RET CODE
        CFI CFA_DOVERLAY Used
        CFI CFA_IOVERLAY Used
        CFI CFA_SP SP+-3
        CFI CFA_PSP16 PSP16+0
        CFI CFA_XSP16 XSP16+0
        CFI `PSW.CY` SameValue
        CFI `B.BR0` SameValue
        CFI `B.BR1` SameValue
        CFI `B.BR2` SameValue
        CFI `B.BR3` SameValue
        CFI `B.BR4` SameValue
        CFI `B.BR5` SameValue
        CFI `B.BR6` SameValue
        CFI `B.BR7` SameValue
        CFI `VB.BR8` SameValue
        CFI `VB.BR9` SameValue
        CFI `VB.BR10` SameValue
        CFI `VB.BR11` SameValue
        CFI `VB.BR12` SameValue
        CFI `VB.BR13` SameValue
        CFI `VB.BR14` SameValue
        CFI `VB.BR15` SameValue
        CFI VB SameValue
        CFI B Undefined
        CFI A Undefined
        CFI PSW SameValue
        CFI DPL0 SameValue
        CFI DPH0 SameValue
        CFI R0 Undefined
        CFI R1 Undefined
        CFI R2 Undefined
        CFI R3 Undefined
        CFI R4 Undefined
        CFI R5 Undefined
        CFI R6 SameValue
        CFI R7 SameValue
        CFI V0 SameValue
        CFI V1 SameValue
        CFI V2 SameValue
        CFI V3 SameValue
        CFI V4 SameValue
        CFI V5 SameValue
        CFI V6 SameValue
        CFI V7 SameValue
        CFI V8 SameValue
        CFI V9 SameValue
        CFI V10 SameValue
        CFI V11 SameValue
        CFI V12 SameValue
        CFI V13 SameValue
        CFI V14 SameValue
        CFI V15 SameValue
        CFI PSPH Undefined
        CFI PSPL Undefined
        CFI XSPH Undefined
        CFI XSPL Undefined
        CFI ?RET Concat
        CFI ?BRET_EXT Frame(CFA_SP, 3)
        CFI ?RET_HIGH Frame(CFA_SP, 2)
        CFI ?RET_LOW Frame(CFA_SP, 1)
        CFI EndCommon cfiCommon0
        
        
        CFI Common cfiCommon1 Using cfiNames0
        CFI CodeAlign 1
        CFI DataAlign -1
        CFI ReturnAddress ?RET CODE
        CFI CFA_DOVERLAY Used
        CFI CFA_IOVERLAY Used
        CFI CFA_SP SP+-2
        CFI CFA_PSP16 PSP16+0
        CFI CFA_XSP16 XSP16+0
        CFI `PSW.CY` SameValue
        CFI `B.BR0` SameValue
        CFI `B.BR1` SameValue
        CFI `B.BR2` SameValue
        CFI `B.BR3` SameValue
        CFI `B.BR4` SameValue
        CFI `B.BR5` SameValue
        CFI `B.BR6` SameValue
        CFI `B.BR7` SameValue
        CFI `VB.BR8` SameValue
        CFI `VB.BR9` SameValue
        CFI `VB.BR10` SameValue
        CFI `VB.BR11` SameValue
        CFI `VB.BR12` SameValue
        CFI `VB.BR13` SameValue
        CFI `VB.BR14` SameValue
        CFI `VB.BR15` SameValue
        CFI VB SameValue
        CFI B SameValue
        CFI A SameValue
        CFI PSW SameValue
        CFI DPL0 SameValue
        CFI DPH0 SameValue
        CFI R0 SameValue
        CFI R1 SameValue
        CFI R2 SameValue
        CFI R3 SameValue
        CFI R4 SameValue
        CFI R5 SameValue
        CFI R6 SameValue
        CFI R7 SameValue
        CFI V0 SameValue
        CFI V1 SameValue
        CFI V2 SameValue
        CFI V3 SameValue
        CFI V4 SameValue
        CFI V5 SameValue
        CFI V6 SameValue
        CFI V7 SameValue
        CFI V8 SameValue
        CFI V9 SameValue
        CFI V10 SameValue
        CFI V11 SameValue
        CFI V12 SameValue
        CFI V13 SameValue
        CFI V14 SameValue
        CFI V15 SameValue
        CFI PSPH Undefined
        CFI PSPL Undefined
        CFI XSPH Undefined
        CFI XSPL Undefined
        CFI ?RET Concat
        CFI ?BRET_EXT SameValue
        CFI ?RET_HIGH Frame(CFA_SP, 2)
        CFI ?RET_LOW Frame(CFA_SP, 1)
        CFI EndCommon cfiCommon1
        
afRegister          SYMBOL "afRegister"
RegisterForKeys     SYMBOL "RegisterForKeys"
HalLcdWriteString   SYMBOL "HalLcdWriteString"
ZDO_RegisterForZDOMsg SYMBOL "ZDO_RegisterForZDOMsg"
osal_msg_receive    SYMBOL "osal_msg_receive"
osal_start_timerEx  SYMBOL "osal_start_timerEx"
osal_msg_deallocate SYMBOL "osal_msg_deallocate"
ZDO_ParseEPListRsp  SYMBOL "ZDO_ParseEPListRsp"
HalLedSet           SYMBOL "HalLedSet"
osal_mem_free       SYMBOL "osal_mem_free"
NLME_GetShortAddr   SYMBOL "NLME_GetShortAddr"
ZDP_EndDeviceBindReq SYMBOL "ZDP_EndDeviceBindReq"
ZDP_MatchDescReq    SYMBOL "ZDP_MatchDescReq"
osal_memcpy         SYMBOL "osal_memcpy"
DHT11               SYMBOL "DHT11"
AF_DataRequest      SYMBOL "AF_DataRequest"
??AF_DataRequest?relay SYMBOL "?relay", AF_DataRequest
??DHT11?relay       SYMBOL "?relay", DHT11
??HalLcdWriteString?relay SYMBOL "?relay", HalLcdWriteString
??HalLedSet?relay   SYMBOL "?relay", HalLedSet
??NLME_GetShortAddr?relay SYMBOL "?relay", NLME_GetShortAddr
??RegisterForKeys?relay SYMBOL "?relay", RegisterForKeys
??ZDO_ParseEPListRsp?relay SYMBOL "?relay", ZDO_ParseEPListRsp
??ZDO_RegisterForZDOMsg?relay SYMBOL "?relay", ZDO_RegisterForZDOMsg
??ZDP_EndDeviceBindReq?relay SYMBOL "?relay", ZDP_EndDeviceBindReq
??ZDP_MatchDescReq?relay SYMBOL "?relay", ZDP_MatchDescReq
??afRegister?relay  SYMBOL "?relay", afRegister
??osal_mem_free?relay SYMBOL "?relay", osal_mem_free
??osal_memcpy?relay SYMBOL "?relay", osal_memcpy
??osal_msg_deallocate?relay SYMBOL "?relay", osal_msg_deallocate
??osal_msg_receive?relay SYMBOL "?relay", osal_msg_receive
??osal_start_timerEx?relay SYMBOL "?relay", osal_start_timerEx
GenericApp_Init     SYMBOL "GenericApp_Init"
??GenericApp_Init?relay SYMBOL "?relay", GenericApp_Init
GenericApp_ProcessEvent SYMBOL "GenericApp_ProcessEvent"
??GenericApp_ProcessEvent?relay SYMBOL "?relay", GenericApp_ProcessEvent
GenericApp_Send_GAN_Message SYMBOL "GenericApp_Send_GAN_Message"
??GenericApp_Send_GAN_Message?relay SYMBOL "?relay", GenericApp_Send_GAN_Message
GenericApp_Send_Guangqiang_Message SYMBOL "GenericApp_Send_Guangqiang_Message"
??GenericApp_Send_Guangqiang_Message?relay SYMBOL "?relay", GenericApp_Send_Guangqiang_Message
GenericApp_Send_rentihongwai_Message SYMBOL "GenericApp_Send_rentihongwai_Message"
??GenericApp_Send_rentihongwai_Message?relay SYMBOL "?relay", GenericApp_Send_rentihongwai_Message
GenericApp_Send_wedu_Message SYMBOL "GenericApp_Send_wedu_Message"
??GenericApp_Send_wedu_Message?relay SYMBOL "?relay", GenericApp_Send_wedu_Message
GenericApp_Send_wenshidu_Message SYMBOL "GenericApp_Send_wenshidu_Message"
??GenericApp_Send_wenshidu_Message?relay SYMBOL "?relay", GenericApp_Send_wenshidu_Message
myApp_ReadGasLevel  SYMBOL "myApp_ReadGasLevel"
??myApp_ReadGasLevel?relay SYMBOL "?relay", myApp_ReadGasLevel
myApp_ReadLightLevel SYMBOL "myApp_ReadLightLevel"
??myApp_ReadLightLevel?relay SYMBOL "?relay", myApp_ReadLightLevel

        EXTERN afRegister
        FUNCTION afRegister,0202H
        ARGFRAME ISTACK, 0, STACK
        ARGFRAME PSTACK, 0, STACK
        ARGFRAME XSTACK, 9, STACK
        ARGFRAME IOVERLAY, 0, STATIC
        ARGFRAME DOVERLAY, 0, STATIC
        EXTERN RegisterForKeys
        FUNCTION RegisterForKeys,0202H
        ARGFRAME ISTACK, 0, STACK
        ARGFRAME PSTACK, 0, STACK
        ARGFRAME XSTACK, 9, STACK
        ARGFRAME IOVERLAY, 0, STATIC
        ARGFRAME DOVERLAY, 0, STATIC
        EXTERN HalLcdWriteString
        FUNCTION HalLcdWriteString,0202H
        ARGFRAME ISTACK, 0, STACK
        ARGFRAME PSTACK, 0, STACK
        ARGFRAME XSTACK, 9, STACK
        ARGFRAME IOVERLAY, 0, STATIC
        ARGFRAME DOVERLAY, 0, STATIC
        EXTERN ZDO_RegisterForZDOMsg
        FUNCTION ZDO_RegisterForZDOMsg,0202H
        ARGFRAME ISTACK, 0, STACK
        ARGFRAME PSTACK, 0, STACK
        ARGFRAME XSTACK, 9, STACK
        ARGFRAME IOVERLAY, 0, STATIC
        ARGFRAME DOVERLAY, 0, STATIC
        EXTERN osal_msg_receive
        FUNCTION osal_msg_receive,0202H
        ARGFRAME ISTACK, 0, STACK
        ARGFRAME PSTACK, 0, STACK
        ARGFRAME XSTACK, 26, STACK
        ARGFRAME IOVERLAY, 0, STATIC
        ARGFRAME DOVERLAY, 0, STATIC
        EXTERN osal_start_timerEx
        FUNCTION osal_start_timerEx,0202H
        ARGFRAME ISTACK, 0, STACK
        ARGFRAME PSTACK, 0, STACK
        ARGFRAME XSTACK, 26, STACK
        ARGFRAME IOVERLAY, 0, STATIC
        ARGFRAME DOVERLAY, 0, STATIC
        EXTERN osal_msg_deallocate
        FUNCTION osal_msg_deallocate,0202H
        ARGFRAME ISTACK, 0, STACK
        ARGFRAME PSTACK, 0, STACK
        ARGFRAME XSTACK, 26, STACK
        ARGFRAME IOVERLAY, 0, STATIC
        ARGFRAME DOVERLAY, 0, STATIC
        EXTERN ZDO_ParseEPListRsp
        FUNCTION ZDO_ParseEPListRsp,0202H
        ARGFRAME ISTACK, 0, STACK
        ARGFRAME PSTACK, 0, STACK
        ARGFRAME XSTACK, 26, STACK
        ARGFRAME IOVERLAY, 0, STATIC
        ARGFRAME DOVERLAY, 0, STATIC
        EXTERN HalLedSet
        FUNCTION HalLedSet,0202H
        ARGFRAME ISTACK, 0, STACK
        ARGFRAME PSTACK, 0, STACK
        ARGFRAME XSTACK, 26, STACK
        ARGFRAME IOVERLAY, 0, STATIC
        ARGFRAME DOVERLAY, 0, STATIC
        EXTERN osal_mem_free
        FUNCTION osal_mem_free,0202H
        ARGFRAME ISTACK, 0, STACK
        ARGFRAME PSTACK, 0, STACK
        ARGFRAME XSTACK, 26, STACK
        ARGFRAME IOVERLAY, 0, STATIC
        ARGFRAME DOVERLAY, 0, STATIC
        EXTERN NLME_GetShortAddr
        FUNCTION NLME_GetShortAddr,0202H
        ARGFRAME ISTACK, 0, STACK
        ARGFRAME PSTACK, 0, STACK
        ARGFRAME XSTACK, 26, STACK
        ARGFRAME IOVERLAY, 0, STATIC
        ARGFRAME DOVERLAY, 0, STATIC
        EXTERN ZDP_EndDeviceBindReq
        FUNCTION ZDP_EndDeviceBindReq,0202H
        ARGFRAME ISTACK, 0, STACK
        ARGFRAME PSTACK, 0, STACK
        ARGFRAME XSTACK, 35, STACK
        ARGFRAME IOVERLAY, 0, STATIC
        ARGFRAME DOVERLAY, 0, STATIC
        EXTERN ZDP_MatchDescReq
        FUNCTION ZDP_MatchDescReq,0202H
        ARGFRAME ISTACK, 0, STACK
        ARGFRAME PSTACK, 0, STACK
        ARGFRAME XSTACK, 34, STACK
        ARGFRAME IOVERLAY, 0, STATIC
        ARGFRAME DOVERLAY, 0, STATIC
        EXTERN osal_memcpy
        FUNCTION osal_memcpy,0202H
        ARGFRAME ISTACK, 0, STACK
        ARGFRAME PSTACK, 0, STACK
        ARGFRAME XSTACK, 29, STACK
        ARGFRAME IOVERLAY, 0, STATIC
        ARGFRAME DOVERLAY, 0, STATIC
        EXTERN DHT11
        FUNCTION DHT11,0202H
        ARGFRAME ISTACK, 0, STACK
        ARGFRAME PSTACK, 0, STACK
        ARGFRAME XSTACK, 24, STACK
        ARGFRAME IOVERLAY, 0, STATIC
        ARGFRAME DOVERLAY, 0, STATIC
        EXTERN AF_DataRequest
        FUNCTION AF_DataRequest,0202H
        ARGFRAME ISTACK, 0, STACK
        ARGFRAME PSTACK, 0, STACK
        ARGFRAME XSTACK, 33, STACK
        ARGFRAME IOVERLAY, 0, STATIC
        ARGFRAME DOVERLAY, 0, STATIC
        EXTERN ??AF_DataRequest?relay
        FUNCTION ??AF_DataRequest?relay,00H
        EXTERN ??DHT11?relay
        FUNCTION ??DHT11?relay,00H
        EXTERN ??HalLcdWriteString?relay
        FUNCTION ??HalLcdWriteString?relay,00H
        EXTERN ??HalLedSet?relay
        FUNCTION ??HalLedSet?relay,00H
        EXTERN ??NLME_GetShortAddr?relay
        FUNCTION ??NLME_GetShortAddr?relay,00H
        EXTERN ??RegisterForKeys?relay
        FUNCTION ??RegisterForKeys?relay,00H
        EXTERN ??ZDO_ParseEPListRsp?relay
        FUNCTION ??ZDO_ParseEPListRsp?relay,00H
        EXTERN ??ZDO_RegisterForZDOMsg?relay
        FUNCTION ??ZDO_RegisterForZDOMsg?relay,00H
        EXTERN ??ZDP_EndDeviceBindReq?relay
        FUNCTION ??ZDP_EndDeviceBindReq?relay,00H
        EXTERN ??ZDP_MatchDescReq?relay
        FUNCTION ??ZDP_MatchDescReq?relay,00H
        EXTERN ??afRegister?relay
        FUNCTION ??afRegister?relay,00H
        EXTERN ??osal_mem_free?relay
        FUNCTION ??osal_mem_free?relay,00H
        EXTERN ??osal_memcpy?relay
        FUNCTION ??osal_memcpy?relay,00H
        EXTERN ??osal_msg_deallocate?relay
        FUNCTION ??osal_msg_deallocate?relay,00H
        EXTERN ??osal_msg_receive?relay
        FUNCTION ??osal_msg_receive?relay,00H
        EXTERN ??osal_start_timerEx?relay
        FUNCTION ??osal_start_timerEx?relay,00H
        EXTERN shidu_ge
        EXTERN shidu_shi
        EXTERN wendu_ge
        EXTERN wendu_shi

// F:\ACAD\硕士\A毕设小车\ZStack-CC2530-2.5.1a\Projects\zstack\Samples\GenericApp\Source\enddevice.c
//    1 /******************************************************************************
//    2   Filename:       GenericApp.c
//    3   Revised:        $Date: 2012-03-07 01:04:58 -0800 (Wed, 07 Mar 2012) $
//    4   Revision:       $Revision: 29656 $
//    5 
//    6   Description:    Generic Application (no Profile).
//    7 
//    8 
//    9   Copyright 2004-2012 Texas Instruments Incorporated. All rights reserved.
//   10 
//   11   IMPORTANT: Your use of this Software is limited to those specific rights
//   12   granted under the terms of a software license agreement between the user
//   13   who downloaded the software, his/her employer (which must be your employer)
//   14   and Texas Instruments Incorporated (the "License"). You may not use this
//   15   Software unless you agree to abide by the terms of the License. The License
//   16   limits your use, and you acknowledge, that the Software may not be modified,
//   17   copied or distributed unless embedded on a Texas Instruments microcontroller
//   18   or used solely and exclusively in conjunction with a Texas Instruments radio
//   19   frequency transceiver, which is integrated into your product. Other than for
//   20   the foregoing purpose, you may not use, reproduce, copy, prepare derivative
//   21   works of, modify, distribute, perform, display or sell this Software and/or
//   22   its documentation for any purpose.
//   23 
//   24   YOU FURTHER ACKNOWLEDGE AND AGREE THAT THE SOFTWARE AND DOCUMENTATION ARE
//   25   PROVIDED AS IS?WITHOUT WARRANTY OF ANY KIND, EITHER EXPRESS OR IMPLIED,
//   26   INCLUDING WITHOUT LIMITATION, ANY WARRANTY OF MERCHANTABILITY, TITLE,
//   27   NON-INFRINGEMENT AND FITNESS FOR A PARTICULAR PURPOSE. IN NO EVENT SHALL
//   28   TEXAS INSTRUMENTS OR ITS LICENSORS BE LIABLE OR OBLIGATED UNDER CONTRACT,
//   29   NEGLIGENCE, STRICT LIABILITY, CONTRIBUTION, BREACH OF WARRANTY, OR OTHER
//   30   LEGAL EQUITABLE THEORY ANY DIRECT OR INDIRECT DAMAGES OR EXPENSES
//   31   INCLUDING BUT NOT LIMITED TO ANY INCIDENTAL, SPECIAL, INDIRECT, PUNITIVE
//   32   OR CONSEQUENTIAL DAMAGES, LOST PROFITS OR LOST DATA, COST OF PROCUREMENT
//   33   OF SUBSTITUTE GOODS, TECHNOLOGY, SERVICES, OR ANY CLAIMS BY THIRD PARTIES
//   34   (INCLUDING BUT NOT LIMITED TO ANY DEFENSE THEREOF), OR OTHER SIMILAR COSTS.
//   35 
//   36   Should you have any questions regarding your right to use this Software,
//   37   contact Texas Instruments Incorporated at www.TI.com.
//   38 ******************************************************************************/
//   39 
//   40 /*********************************************************************
//   41   This application isn't intended to do anything useful, it is
//   42   intended to be a simple example of an application's structure.
//   43 
//   44   This application sends "Hello World" to another "Generic"
//   45   application every 5 seconds.  The application will also
//   46   receives "Hello World" packets.
//   47 
//   48   The "Hello World" messages are sent/received as MSG type message.
//   49 
//   50   This applications doesn't have a profile, so it handles everything
//   51   directly - itself.
//   52 
//   53   Key control:
//   54     SW1:
//   55     SW2:  initiates end device binding
//   56     SW3:
//   57     SW4:  initiates a match description request
//   58 *********************************************************************/
//   59 
//   60 /*********************************************************************
//   61  * INCLUDES
//   62  */
//   63 #include "OSAL.h"
//   64 #include "AF.h"
//   65 #include "ZDApp.h"
//   66 #include "ZDObject.h"
//   67 #include "ZDProfile.h"
//   68 
//   69 #include "GenericApp.h"
//   70 #include "DebugTrace.h"
//   71 
//   72 #if !defined( WIN32 )
//   73   #include "OnBoard.h"

        ASEGN SFR_AN:DATA:NOROOT,080H
// union <unnamed> volatile __sfr _A_P0
_A_P0:
        DATA8
        DS 1

        ASEGN SFR_AN:DATA:NOROOT,090H
// union <unnamed> volatile __sfr _A_P1
_A_P1:
        DATA8
        DS 1

        ASEGN SFR_AN:DATA:NOROOT,0b4H
// unsigned char volatile __sfr ADCCON1
ADCCON1:
        DATA8
        DS 1

        ASEGN SFR_AN:DATA:NOROOT,0b6H
// unsigned char volatile __sfr ADCCON3
ADCCON3:
        DATA8
        DS 1

        ASEGN SFR_AN:DATA:NOROOT,0bbH
// unsigned char volatile __sfr ADCH
ADCH:
        DATA8
        DS 1

        ASEGN SFR_AN:DATA:NOROOT,0f2H
// unsigned char volatile __sfr ADCCFG
ADCCFG:
        DATA8
        DS 1

        ASEGN SFR_AN:DATA:NOROOT,0feH
// unsigned char volatile __sfr P1DIR
P1DIR:
        DATA8
        DS 1
//   74 #endif
//   75 
//   76 /* HAL */
//   77 #include "hal_lcd.h"
//   78 #include "hal_led.h"
//   79 #include "hal_key.h"
//   80 #include "hal_uart.h"
//   81 
//   82 #include "DHT11.h"
//   83 #include "ds18b20.h"
//   84 
//   85 /* RTOS */
//   86 #if defined( IAR_ARMCM3_LM )
//   87 #include "RTOS_App.h"
//   88 #endif  
//   89 
//   90 /*********************************************************************
//   91  * MACROS
//   92  */
//   93 
//   94 /*********************************************************************
//   95  * CONSTANTS
//   96  */
//   97 
//   98 /*********************************************************************
//   99  * TYPEDEFS
//  100  */
//  101 
//  102 /*********************************************************************
//  103  * GLOBAL VARIABLES
//  104  */
//  105 // This list should be filled with Application specific Cluster IDs.

        RSEG XDATA_ROM_C:CONST:REORDER:NOROOT(0)
        DATA8
//  106 const cId_t GenericApp_ClusterList[GENERICAPP_MAX_CLUSTERS] =
GenericApp_ClusterList:
        DATA16
        DW 1
        DW 0
        DW 0
        DW 0
//  107 {
//  108   GENERICAPP_CLUSTERID
//  109 };
//  110 

        RSEG XDATA_ROM_C:CONST:REORDER:NOROOT(0)
        DATA8
//  111 const SimpleDescriptionFormat_t GenericApp_SimpleDesc =
GenericApp_SimpleDesc:
        DB 10
        DATA16
        DW 3844
        DW 1
        DATA8
        DB 0
        DB 4
        DATA16
        DW GenericApp_ClusterList
        DATA8
        DB 4
        DATA16
        DW GenericApp_ClusterList
//  112 {
//  113   GENERICAPP_ENDPOINT,              //  int Endpoint;
//  114   GENERICAPP_PROFID,                //  uint16 AppProfId[2];
//  115   GENERICAPP_DEVICEID,              //  uint16 AppDeviceId[2];
//  116   GENERICAPP_DEVICE_VERSION,        //  int   AppDevVer:4;
//  117   GENERICAPP_FLAGS,                 //  int   AppFlags:4;
//  118   GENERICAPP_MAX_CLUSTERS,          //  byte  AppNumInClusters;
//  119   (cId_t *)GenericApp_ClusterList,  //  byte *pAppInClusterList;
//  120   GENERICAPP_MAX_CLUSTERS,          //  byte  AppNumInClusters;
//  121   (cId_t *)GenericApp_ClusterList   //  byte *pAppInClusterList;
//  122 };
//  123 
//  124 // This is the Endpoint/Interface description.  It is defined here, but
//  125 // filled-in in GenericApp_Init().  Another way to go would be to fill
//  126 // in the structure here and make it a "const" (in code space).  The
//  127 // way it's defined in this sample app it is define in RAM.

        RSEG XDATA_Z:XDATA:NOROOT(0)
        DATA8
//  128 endPointDesc_t GenericApp_epDesc;
GenericApp_epDesc:
        DS 6
        REQUIRE __INIT_XDATA_Z
//  129 
//  130 /*********************************************************************
//  131  * EXTERNAL VARIABLES
//  132  */
//  133 
//  134 /*********************************************************************
//  135  * EXTERNAL FUNCTIONS
//  136  */
//  137 
//  138 /*********************************************************************
//  139  * LOCAL VARIABLES
//  140  */

        RSEG XDATA_Z:XDATA:NOROOT(0)
        DATA8
//  141 byte GenericApp_TaskID;   // Task ID for internal task/event processing
GenericApp_TaskID:
        DS 1
        REQUIRE __INIT_XDATA_Z
//  142                           // This variable will be received when
//  143                           // GenericApp_Init() is called.

        RSEG XDATA_Z:XDATA:NOROOT(0)
        DATA8
//  144 devStates_t GenericApp_NwkState;
GenericApp_NwkState:
        DS 1
        REQUIRE __INIT_XDATA_Z
//  145 
//  146 

        RSEG XDATA_Z:XDATA:NOROOT(0)
        DATA8
//  147 byte GenericApp_TransID;  // This is the unique message ID (counter)
GenericApp_TransID:
        DS 1
        REQUIRE __INIT_XDATA_Z
//  148 

        RSEG XDATA_Z:XDATA:NOROOT(0)
        DATA8
//  149 afAddrType_t GenericApp_DstAddr;
GenericApp_DstAddr:
        DS 12
        REQUIRE __INIT_XDATA_Z
//  150 

        RSEG XDATA_I:XDATA:NOROOT(0)
//  151 char bianhaoID = '1';
bianhaoID:
        DATA8
        DS 1
        REQUIRE `?<Initializer for bianhaoID>`
        REQUIRE __INIT_XDATA_I
//  152 
//  153 /*********************************************************************
//  154  * LOCAL FUNCTIONS
//  155  */
//  156 static void GenericApp_ProcessZDOMsgs( zdoIncomingMsg_t *inMsg );
//  157 static void GenericApp_HandleKeys( byte shift, byte keys );
//  158 static void GenericApp_MessageMSGCB( afIncomingMSGPacket_t *pckt );
//  159 static void GenericApp_SendTheMessage( void );
//  160 
//  161 void GenericApp_Send_wenshidu_Message( void );//我加的，温湿度无线发送函数
//  162 
//  163 void GenericApp_Send_Guangqiang_Message(void);//我加的，光敏无线发送函数
//  164 uint16 myApp_ReadLightLevel( void );//我加的，读取光敏值函数
//  165 
//  166 void GenericApp_Send_GAN_Message( void );//我加的，烟雾无线发送函数
//  167 uint16 myApp_ReadGasLevel( void );//我家的，读取烟雾值
//  168 
//  169 void GenericApp_Send_wedu_Message( void );//我加的，温度无线发送函数
//  170 
//  171 void GenericApp_Send_rentihongwai_Message( void );//我加的，人体红外无线发送函数
//  172 
//  173 #if defined( IAR_ARMCM3_LM )
//  174 static void GenericApp_ProcessRtosMessage( void );
//  175 #endif
//  176 
//  177 /*********************************************************************
//  178  * NETWORK LAYER CALLBACKS
//  179  */
//  180 
//  181 /*********************************************************************
//  182  * PUBLIC FUNCTIONS
//  183  */
//  184 
//  185 /*********************************************************************
//  186  * @fn      GenericApp_Init
//  187  *
//  188  * @brief   Initialization function for the Generic App Task.
//  189  *          This is called during initialization and should contain
//  190  *          any application specific initialization (ie. hardware
//  191  *          initialization/setup, table initialization, power up
//  192  *          notificaiton ... ).
//  193  *
//  194  * @param   task_id - the ID assigned by OSAL.  This ID should be
//  195  *                    used to send messages and set timers.
//  196  *
//  197  * @return  none
//  198  */

        RSEG BANKED_CODE:CODE:NOROOT(0)
//  199 void GenericApp_Init( uint8 task_id )
GenericApp_Init:
        CFI Block cfiBlock0 Using cfiCommon0
        CFI Function GenericApp_Init
        CODE
//  200 {
        FUNCALL GenericApp_Init, afRegister
        LOCFRAME ISTACK, 0, STACK
        LOCFRAME PSTACK, 0, STACK
        LOCFRAME XSTACK, 9, STACK
        LOCFRAME IOVERLAY, 0, STATIC
        LOCFRAME DOVERLAY, 0, STATIC
        ARGFRAME ISTACK, 0, STACK
        ARGFRAME PSTACK, 0, STACK
        ARGFRAME XSTACK, 9, STACK
        ARGFRAME IOVERLAY, 0, STATIC
        ARGFRAME DOVERLAY, 0, STATIC
        FUNCALL GenericApp_Init, RegisterForKeys
        LOCFRAME ISTACK, 0, STACK
        LOCFRAME PSTACK, 0, STACK
        LOCFRAME XSTACK, 9, STACK
        LOCFRAME IOVERLAY, 0, STATIC
        LOCFRAME DOVERLAY, 0, STATIC
        ARGFRAME ISTACK, 0, STACK
        ARGFRAME PSTACK, 0, STACK
        ARGFRAME XSTACK, 9, STACK
        ARGFRAME IOVERLAY, 0, STATIC
        ARGFRAME DOVERLAY, 0, STATIC
        FUNCALL GenericApp_Init, HalLcdWriteString
        LOCFRAME ISTACK, 0, STACK
        LOCFRAME PSTACK, 0, STACK
        LOCFRAME XSTACK, 9, STACK
        LOCFRAME IOVERLAY, 0, STATIC
        LOCFRAME DOVERLAY, 0, STATIC
        ARGFRAME ISTACK, 0, STACK
        ARGFRAME PSTACK, 0, STACK
        ARGFRAME XSTACK, 9, STACK
        ARGFRAME IOVERLAY, 0, STATIC
        ARGFRAME DOVERLAY, 0, STATIC
        FUNCALL GenericApp_Init, ZDO_RegisterForZDOMsg
        LOCFRAME ISTACK, 0, STACK
        LOCFRAME PSTACK, 0, STACK
        LOCFRAME XSTACK, 9, STACK
        LOCFRAME IOVERLAY, 0, STATIC
        LOCFRAME DOVERLAY, 0, STATIC
        ARGFRAME ISTACK, 0, STACK
        ARGFRAME PSTACK, 0, STACK
        ARGFRAME XSTACK, 9, STACK
        ARGFRAME IOVERLAY, 0, STATIC
        ARGFRAME DOVERLAY, 0, STATIC
        FUNCALL GenericApp_Init, ZDO_RegisterForZDOMsg
        LOCFRAME ISTACK, 0, STACK
        LOCFRAME PSTACK, 0, STACK
        LOCFRAME XSTACK, 9, STACK
        LOCFRAME IOVERLAY, 0, STATIC
        LOCFRAME DOVERLAY, 0, STATIC
        ARGFRAME ISTACK, 0, STACK
        ARGFRAME PSTACK, 0, STACK
        ARGFRAME XSTACK, 9, STACK
        ARGFRAME IOVERLAY, 0, STATIC
        ARGFRAME DOVERLAY, 0, STATIC
        MOV     A,#-0x9
        LCALL   ?BANKED_ENTER_XDATA
        CFI DPH0 load(1, XDATA, add(CFA_XSP16, literal(-1)))
        CFI DPL0 load(1, XDATA, add(CFA_XSP16, literal(-2)))
        CFI ?BRET_EXT load(1, XDATA, add(CFA_XSP16, literal(-3)))
        CFI ?RET_HIGH load(1, XDATA, add(CFA_XSP16, literal(-4)))
        CFI ?RET_LOW load(1, XDATA, add(CFA_XSP16, literal(-5)))
        CFI R7 load(1, XDATA, add(CFA_XSP16, literal(-6)))
        CFI V0 load(1, XDATA, add(CFA_XSP16, literal(-7)))
        CFI VB load(1, XDATA, add(CFA_XSP16, literal(-8)))
        CFI R6 load(1, XDATA, add(CFA_XSP16, literal(-9)))
        CFI CFA_SP SP+0
        CFI CFA_XSP16 add(XSP16, 9)
        ; Saved register size: 9
        ; Auto size: 0
        MOV     A,R1
//  201   GenericApp_TaskID = task_id;
        MOV     DPTR,#GenericApp_TaskID
        MOVX    @DPTR,A
//  202   GenericApp_NwkState = DEV_INIT;
        MOV     DPTR,#GenericApp_NwkState
        MOV     A,#0x1
        MOVX    @DPTR,A
//  203   GenericApp_TransID = 0;
        MOV     DPTR,#GenericApp_TransID
        CLR     A
        MOVX    @DPTR,A
//  204    //初始化P13，因为P13是控制继电器的io口
//  205   
//  206   //P1DIR |= 0x08 ;//设置P13为输出
//  207   P1DIR |= 0x88 ;//设置P17和P13为输出
        ORL     0xfe,#0x88
//  208   
//  209   P1_3 = 0 ;//初始化P13为低电平
        CLR     0x90.3
//  210   
//  211   P1_7=1;//初始化P17为高电平
        SETB    0x90.7
//  212   
//  213   P0_5 = 0;
        CLR     0x80.5
//  214 
//  215   // Device hardware initialization can be added here or in main() (Zmain.c).
//  216   // If the hardware is application specific - add it here.
//  217   // If the hardware is other parts of the device add it in main().
//  218 
//  219   GenericApp_DstAddr.addrMode = (afAddrMode_t)Addr16Bit;
        MOV     DPTR,#GenericApp_DstAddr + 8
        MOV     A,#0x2
        MOVX    @DPTR,A
//  220   GenericApp_DstAddr.endPoint = GENERICAPP_ENDPOINT;
        INC     DPTR
        MOV     A,#0xa
        MOVX    @DPTR,A
//  221   GenericApp_DstAddr.addr.shortAddr = 0x0000;
        MOV     DPTR,#GenericApp_DstAddr
        CLR     A
        MOVX    @DPTR,A
        INC     DPTR
        MOVX    @DPTR,A
//  222 
//  223   // Fill out the endpoint description.
//  224   GenericApp_epDesc.endPoint = GENERICAPP_ENDPOINT;
        MOV     DPTR,#GenericApp_epDesc
        MOV     A,#0xa
        MOVX    @DPTR,A
//  225   GenericApp_epDesc.task_id = &GenericApp_TaskID;
        INC     DPTR
        MOV     A,#GenericApp_TaskID & 0xff
        MOVX    @DPTR,A
        INC     DPTR
        MOV     A,#(GenericApp_TaskID >> 8) & 0xff
        MOVX    @DPTR,A
//  226   GenericApp_epDesc.simpleDesc
//  227             = (SimpleDescriptionFormat_t *)&GenericApp_SimpleDesc;
        INC     DPTR
        MOV     A,#GenericApp_SimpleDesc & 0xff
        MOVX    @DPTR,A
        INC     DPTR
        MOV     A,#(GenericApp_SimpleDesc >> 8) & 0xff
        MOVX    @DPTR,A
//  228   GenericApp_epDesc.latencyReq = noLatencyReqs;
        INC     DPTR
        CLR     A
        MOVX    @DPTR,A
//  229 
//  230   // Register the endpoint description with the AF
//  231   afRegister( &GenericApp_epDesc );
        ; Setup parameters for call to function afRegister
        MOV     R2,#GenericApp_epDesc & 0xff
        MOV     R3,#(GenericApp_epDesc >> 8) & 0xff
        LCALL   ??afRegister?relay
//  232 
//  233   // Register for all key events - This app will handle all key events
//  234   RegisterForKeys( GenericApp_TaskID );
        ; Setup parameters for call to function RegisterForKeys
        MOV     DPTR,#GenericApp_TaskID
        MOVX    A,@DPTR
        MOV     R1,A
        LCALL   ??RegisterForKeys?relay
//  235 
//  236   // Update the display
//  237 #if defined ( LCD_SUPPORTED )
//  238   HalLcdWriteString( "GenericApp", HAL_LCD_LINE_1 );
        ; Setup parameters for call to function HalLcdWriteString
        MOV     R1,#0x1
        MOV     R2,#`?<Constant "GenericApp">` & 0xff
        MOV     R3,#(`?<Constant "GenericApp">` >> 8) & 0xff
        LCALL   ??HalLcdWriteString?relay
//  239 #endif
//  240 
//  241   ZDO_RegisterForZDOMsg( GenericApp_TaskID, End_Device_Bind_rsp );
        ; Setup parameters for call to function ZDO_RegisterForZDOMsg
        MOV     R2,#0x20
        MOV     R3,#-0x80
        MOV     DPTR,#GenericApp_TaskID
        MOVX    A,@DPTR
        MOV     R1,A
        LCALL   ??ZDO_RegisterForZDOMsg?relay
//  242   ZDO_RegisterForZDOMsg( GenericApp_TaskID, Match_Desc_rsp );
        ; Setup parameters for call to function ZDO_RegisterForZDOMsg
        MOV     R2,#0x6
        MOV     R3,#-0x80
        MOV     DPTR,#GenericApp_TaskID
        MOVX    A,@DPTR
        MOV     R1,A
        LCALL   ??ZDO_RegisterForZDOMsg?relay
//  243 
//  244 #if defined( IAR_ARMCM3_LM )
//  245   // Register this task with RTOS task initiator
//  246   RTOS_RegisterApp( task_id, GENERICAPP_RTOS_MSG_EVT );
//  247 #endif
//  248 }
        MOV     R7,#0x1
        LJMP    ?BANKED_LEAVE_XDATA
        CFI EndBlock cfiBlock0
        REQUIRE P1DIR
        REQUIRE _A_P1
        REQUIRE _A_P0
//  249 
//  250 /*********************************************************************
//  251  * @fn      GenericApp_ProcessEvent
//  252  *
//  253  * @brief   Generic Application Task event processor.  This function
//  254  *          is called to process all events for the task.  Events
//  255  *          include timers, messages and any other user defined events.
//  256  *
//  257  * @param   task_id  - The OSAL assigned task ID.
//  258  * @param   events - events to process.  This is a bit map and can
//  259  *                   contain more than one event.
//  260  *
//  261  * @return  none
//  262  */

        RSEG BANKED_CODE:CODE:NOROOT(0)
//  263 uint16 GenericApp_ProcessEvent( uint8 task_id, uint16 events )
GenericApp_ProcessEvent:
        CFI Block cfiBlock1 Using cfiCommon0
        CFI Function GenericApp_ProcessEvent
        CODE
//  264 {
        FUNCALL GenericApp_ProcessEvent, osal_msg_receive
        LOCFRAME ISTACK, 0, STACK
        LOCFRAME PSTACK, 0, STACK
        LOCFRAME XSTACK, 26, STACK
        LOCFRAME IOVERLAY, 0, STATIC
        LOCFRAME DOVERLAY, 0, STATIC
        ARGFRAME ISTACK, 0, STACK
        ARGFRAME PSTACK, 0, STACK
        ARGFRAME XSTACK, 26, STACK
        ARGFRAME IOVERLAY, 0, STATIC
        ARGFRAME DOVERLAY, 0, STATIC
        FUNCALL GenericApp_ProcessEvent, osal_start_timerEx
        LOCFRAME ISTACK, 0, STACK
        LOCFRAME PSTACK, 0, STACK
        LOCFRAME XSTACK, 26, STACK
        LOCFRAME IOVERLAY, 0, STATIC
        LOCFRAME DOVERLAY, 0, STATIC
        ARGFRAME ISTACK, 0, STACK
        ARGFRAME PSTACK, 0, STACK
        ARGFRAME XSTACK, 26, STACK
        ARGFRAME IOVERLAY, 0, STATIC
        ARGFRAME DOVERLAY, 0, STATIC
        FUNCALL GenericApp_ProcessEvent, osal_msg_deallocate
        LOCFRAME ISTACK, 0, STACK
        LOCFRAME PSTACK, 0, STACK
        LOCFRAME XSTACK, 26, STACK
        LOCFRAME IOVERLAY, 0, STATIC
        LOCFRAME DOVERLAY, 0, STATIC
        ARGFRAME ISTACK, 0, STACK
        ARGFRAME PSTACK, 0, STACK
        ARGFRAME XSTACK, 26, STACK
        ARGFRAME IOVERLAY, 0, STATIC
        ARGFRAME DOVERLAY, 0, STATIC
        FUNCALL GenericApp_ProcessEvent, osal_msg_receive
        LOCFRAME ISTACK, 0, STACK
        LOCFRAME PSTACK, 0, STACK
        LOCFRAME XSTACK, 26, STACK
        LOCFRAME IOVERLAY, 0, STATIC
        LOCFRAME DOVERLAY, 0, STATIC
        ARGFRAME ISTACK, 0, STACK
        ARGFRAME PSTACK, 0, STACK
        ARGFRAME XSTACK, 26, STACK
        ARGFRAME IOVERLAY, 0, STATIC
        ARGFRAME DOVERLAY, 0, STATIC
        FUNCALL GenericApp_ProcessEvent, ZDO_ParseEPListRsp
        LOCFRAME ISTACK, 0, STACK
        LOCFRAME PSTACK, 0, STACK
        LOCFRAME XSTACK, 26, STACK
        LOCFRAME IOVERLAY, 0, STATIC
        LOCFRAME DOVERLAY, 0, STATIC
        ARGFRAME ISTACK, 0, STACK
        ARGFRAME PSTACK, 0, STACK
        ARGFRAME XSTACK, 26, STACK
        ARGFRAME IOVERLAY, 0, STATIC
        ARGFRAME DOVERLAY, 0, STATIC
        FUNCALL GenericApp_ProcessEvent, HalLedSet
        LOCFRAME ISTACK, 0, STACK
        LOCFRAME PSTACK, 0, STACK
        LOCFRAME XSTACK, 26, STACK
        LOCFRAME IOVERLAY, 0, STATIC
        LOCFRAME DOVERLAY, 0, STATIC
        ARGFRAME ISTACK, 0, STACK
        ARGFRAME PSTACK, 0, STACK
        ARGFRAME XSTACK, 26, STACK
        ARGFRAME IOVERLAY, 0, STATIC
        ARGFRAME DOVERLAY, 0, STATIC
        FUNCALL GenericApp_ProcessEvent, osal_mem_free
        LOCFRAME ISTACK, 0, STACK
        LOCFRAME PSTACK, 0, STACK
        LOCFRAME XSTACK, 26, STACK
        LOCFRAME IOVERLAY, 0, STATIC
        LOCFRAME DOVERLAY, 0, STATIC
        ARGFRAME ISTACK, 0, STACK
        ARGFRAME PSTACK, 0, STACK
        ARGFRAME XSTACK, 26, STACK
        ARGFRAME IOVERLAY, 0, STATIC
        ARGFRAME DOVERLAY, 0, STATIC
        FUNCALL GenericApp_ProcessEvent, HalLedSet
        LOCFRAME ISTACK, 0, STACK
        LOCFRAME PSTACK, 0, STACK
        LOCFRAME XSTACK, 26, STACK
        LOCFRAME IOVERLAY, 0, STATIC
        LOCFRAME DOVERLAY, 0, STATIC
        ARGFRAME ISTACK, 0, STACK
        ARGFRAME PSTACK, 0, STACK
        ARGFRAME XSTACK, 26, STACK
        ARGFRAME IOVERLAY, 0, STATIC
        ARGFRAME DOVERLAY, 0, STATIC
        FUNCALL GenericApp_ProcessEvent, HalLedSet
        LOCFRAME ISTACK, 0, STACK
        LOCFRAME PSTACK, 0, STACK
        LOCFRAME XSTACK, 26, STACK
        LOCFRAME IOVERLAY, 0, STATIC
        LOCFRAME DOVERLAY, 0, STATIC
        ARGFRAME ISTACK, 0, STACK
        ARGFRAME PSTACK, 0, STACK
        ARGFRAME XSTACK, 26, STACK
        ARGFRAME IOVERLAY, 0, STATIC
        ARGFRAME DOVERLAY, 0, STATIC
        FUNCALL GenericApp_ProcessEvent, HalLedSet
        LOCFRAME ISTACK, 0, STACK
        LOCFRAME PSTACK, 0, STACK
        LOCFRAME XSTACK, 26, STACK
        LOCFRAME IOVERLAY, 0, STATIC
        LOCFRAME DOVERLAY, 0, STATIC
        ARGFRAME ISTACK, 0, STACK
        ARGFRAME PSTACK, 0, STACK
        ARGFRAME XSTACK, 26, STACK
        ARGFRAME IOVERLAY, 0, STATIC
        ARGFRAME DOVERLAY, 0, STATIC
        FUNCALL GenericApp_ProcessEvent, NLME_GetShortAddr
        LOCFRAME ISTACK, 0, STACK
        LOCFRAME PSTACK, 0, STACK
        LOCFRAME XSTACK, 26, STACK
        LOCFRAME IOVERLAY, 0, STATIC
        LOCFRAME DOVERLAY, 0, STATIC
        ARGFRAME ISTACK, 0, STACK
        ARGFRAME PSTACK, 0, STACK
        ARGFRAME XSTACK, 26, STACK
        ARGFRAME IOVERLAY, 0, STATIC
        ARGFRAME DOVERLAY, 0, STATIC
        FUNCALL GenericApp_ProcessEvent, ZDP_EndDeviceBindReq
        LOCFRAME ISTACK, 0, STACK
        LOCFRAME PSTACK, 0, STACK
        LOCFRAME XSTACK, 35, STACK
        LOCFRAME IOVERLAY, 0, STATIC
        LOCFRAME DOVERLAY, 0, STATIC
        ARGFRAME ISTACK, 0, STACK
        ARGFRAME PSTACK, 0, STACK
        ARGFRAME XSTACK, 35, STACK
        ARGFRAME IOVERLAY, 0, STATIC
        ARGFRAME DOVERLAY, 0, STATIC
        FUNCALL GenericApp_ProcessEvent, HalLedSet
        LOCFRAME ISTACK, 0, STACK
        LOCFRAME PSTACK, 0, STACK
        LOCFRAME XSTACK, 26, STACK
        LOCFRAME IOVERLAY, 0, STATIC
        LOCFRAME DOVERLAY, 0, STATIC
        ARGFRAME ISTACK, 0, STACK
        ARGFRAME PSTACK, 0, STACK
        ARGFRAME XSTACK, 26, STACK
        ARGFRAME IOVERLAY, 0, STATIC
        ARGFRAME DOVERLAY, 0, STATIC
        FUNCALL GenericApp_ProcessEvent, ZDP_MatchDescReq
        LOCFRAME ISTACK, 0, STACK
        LOCFRAME PSTACK, 0, STACK
        LOCFRAME XSTACK, 34, STACK
        LOCFRAME IOVERLAY, 0, STATIC
        LOCFRAME DOVERLAY, 0, STATIC
        ARGFRAME ISTACK, 0, STACK
        ARGFRAME PSTACK, 0, STACK
        ARGFRAME XSTACK, 34, STACK
        ARGFRAME IOVERLAY, 0, STATIC
        ARGFRAME DOVERLAY, 0, STATIC
        FUNCALL GenericApp_ProcessEvent, osal_memcpy
        LOCFRAME ISTACK, 0, STACK
        LOCFRAME PSTACK, 0, STACK
        LOCFRAME XSTACK, 29, STACK
        LOCFRAME IOVERLAY, 0, STATIC
        LOCFRAME DOVERLAY, 0, STATIC
        ARGFRAME ISTACK, 0, STACK
        ARGFRAME PSTACK, 0, STACK
        ARGFRAME XSTACK, 29, STACK
        ARGFRAME IOVERLAY, 0, STATIC
        ARGFRAME DOVERLAY, 0, STATIC
        FUNCALL GenericApp_ProcessEvent, GenericApp_Send_wenshidu_Message
        LOCFRAME ISTACK, 0, STACK
        LOCFRAME PSTACK, 0, STACK
        LOCFRAME XSTACK, 26, STACK
        LOCFRAME IOVERLAY, 0, STATIC
        LOCFRAME DOVERLAY, 0, STATIC
        ARGFRAME ISTACK, 0, STACK
        ARGFRAME PSTACK, 0, STACK
        ARGFRAME XSTACK, 26, STACK
        ARGFRAME IOVERLAY, 0, STATIC
        ARGFRAME DOVERLAY, 0, STATIC
        FUNCALL GenericApp_ProcessEvent, osal_start_timerEx
        LOCFRAME ISTACK, 0, STACK
        LOCFRAME PSTACK, 0, STACK
        LOCFRAME XSTACK, 26, STACK
        LOCFRAME IOVERLAY, 0, STATIC
        LOCFRAME DOVERLAY, 0, STATIC
        ARGFRAME ISTACK, 0, STACK
        ARGFRAME PSTACK, 0, STACK
        ARGFRAME XSTACK, 26, STACK
        ARGFRAME IOVERLAY, 0, STATIC
        ARGFRAME DOVERLAY, 0, STATIC
        MOV     A,#-0xf
        LCALL   ?BANKED_ENTER_XDATA
        CFI DPH0 load(1, XDATA, add(CFA_XSP16, literal(-1)))
        CFI DPL0 load(1, XDATA, add(CFA_XSP16, literal(-2)))
        CFI ?BRET_EXT load(1, XDATA, add(CFA_XSP16, literal(-3)))
        CFI ?RET_HIGH load(1, XDATA, add(CFA_XSP16, literal(-4)))
        CFI ?RET_LOW load(1, XDATA, add(CFA_XSP16, literal(-5)))
        CFI R7 load(1, XDATA, add(CFA_XSP16, literal(-6)))
        CFI V6 load(1, XDATA, add(CFA_XSP16, literal(-7)))
        CFI V5 load(1, XDATA, add(CFA_XSP16, literal(-8)))
        CFI V4 load(1, XDATA, add(CFA_XSP16, literal(-9)))
        CFI V3 load(1, XDATA, add(CFA_XSP16, literal(-10)))
        CFI V2 load(1, XDATA, add(CFA_XSP16, literal(-11)))
        CFI V1 load(1, XDATA, add(CFA_XSP16, literal(-12)))
        CFI V0 load(1, XDATA, add(CFA_XSP16, literal(-13)))
        CFI VB load(1, XDATA, add(CFA_XSP16, literal(-14)))
        CFI R6 load(1, XDATA, add(CFA_XSP16, literal(-15)))
        CFI CFA_SP SP+0
        CFI CFA_XSP16 add(XSP16, 15)
        ; Saved register size: 15
        ; Auto size: 11
        MOV     A,#-0xb
        LCALL   ?ALLOC_XSTACK8
        CFI CFA_XSP16 add(XSP16, 26)
        MOV     A,R2
        MOV     R6,A
        MOV     A,R3
        MOV     R7,A
//  265   afIncomingMSGPacket_t *MSGpkt;
//  266   afDataConfirm_t *afDataConfirm;
//  267 
//  268   // Data Confirmation message fields
//  269   byte sentEP;
//  270   ZStatus_t sentStatus;
//  271   byte sentTransID;       // This should match the value sent
//  272   (void)task_id;  // Intentionally unreferenced parameter
//  273 
//  274   if ( events & SYS_EVENT_MSG )
        ANL     A,#0x80
        JNZ     $+5
        LJMP    ??GenericApp_ProcessEvent_0 & 0xFFFF
//  275   {
//  276     MSGpkt = (afIncomingMSGPacket_t *)osal_msg_receive( GenericApp_TaskID );
        ; Setup parameters for call to function osal_msg_receive
        SJMP    ??GenericApp_ProcessEvent_1
//  277     while ( MSGpkt )
//  278     {
//  279       switch ( MSGpkt->hdr.event )
//  280       {
//  281         case ZDO_CB_MSG:
//  282           GenericApp_ProcessZDOMsgs( (zdoIncomingMsg_t *)MSGpkt );
//  283           break;
//  284 
//  285         case KEY_CHANGE:
//  286           GenericApp_HandleKeys( ((keyChange_t *)MSGpkt)->state, ((keyChange_t *)MSGpkt)->keys );
//  287           break;
//  288 
//  289         case AF_DATA_CONFIRM_CMD:
//  290           // This message is received as a confirmation of a data packet sent.
//  291           // The status is of ZStatus_t type [defined in ZComDef.h]
//  292           // The message fields are defined in AF.h
//  293           afDataConfirm = (afDataConfirm_t *)MSGpkt;
//  294           sentEP = afDataConfirm->endpoint;
//  295           sentStatus = afDataConfirm->hdr.status;
//  296           sentTransID = afDataConfirm->transID;
//  297           (void)sentEP;
//  298           (void)sentTransID;
//  299 
//  300           // Action taken when confirmation is received.
//  301           if ( sentStatus != ZSuccess )
//  302           {
//  303             // The data wasn't delivered -- Do something
//  304           }
//  305           break;
//  306 
//  307         case AF_INCOMING_MSG_CMD:
//  308           GenericApp_MessageMSGCB( MSGpkt );
//  309           break;
//  310 
//  311         case ZDO_STATE_CHANGE:
//  312           GenericApp_NwkState = (devStates_t)(MSGpkt->hdr.status);
??GenericApp_ProcessEvent_2:
        INC     DPTR
        MOVX    A,@DPTR
        MOV     DPTR,#GenericApp_NwkState
        MOVX    @DPTR,A
//  313           if ( (GenericApp_NwkState == DEV_ZB_COORD)
//  314               || (GenericApp_NwkState == DEV_ROUTER)
//  315               || (GenericApp_NwkState == DEV_END_DEVICE) )
        XRL     A,#0x9
        JZ      ??GenericApp_ProcessEvent_3
        MOVX    A,@DPTR
        XRL     A,#0x7
        JZ      ??GenericApp_ProcessEvent_3
        MOVX    A,@DPTR
        XRL     A,#0x6
        JNZ     ??GenericApp_ProcessEvent_4
//  316           {
//  317             // Start sending "the" message in a regular interval.
//  318             osal_start_timerEx( GenericApp_TaskID,
//  319                                 GENERICAPP_SEND_MSG_EVT,
//  320                                 GENERICAPP_SEND_MSG_TIMEOUT );
??GenericApp_ProcessEvent_3:
        ; Setup parameters for call to function osal_start_timerEx
        MOV     R4,#-0x78
        MOV     R5,#0x13
        MOV     R2,#0x1
        MOV     R3,#0x0
        MOV     DPTR,#GenericApp_TaskID
        MOVX    A,@DPTR
        MOV     R1,A
        LCALL   ??osal_start_timerEx?relay
//  321           }
//  322           break;
//  323 
//  324         default:
//  325           break;
//  326       }
//  327 
//  328       // Release the memory
//  329       osal_msg_deallocate( (uint8 *)MSGpkt );
??GenericApp_ProcessEvent_4:
        ; Setup parameters for call to function osal_msg_deallocate
        MOV     R2,?V0 + 0
        MOV     R3,?V0 + 1
        LCALL   ??osal_msg_deallocate?relay
//  330 
//  331       // Next
//  332       MSGpkt = (afIncomingMSGPacket_t *)osal_msg_receive( GenericApp_TaskID );
        ; Setup parameters for call to function osal_msg_receive
??GenericApp_ProcessEvent_1:
        MOV     DPTR,#GenericApp_TaskID
        MOVX    A,@DPTR
        MOV     R1,A
        LCALL   ??osal_msg_receive?relay
        MOV     ?V0 + 0,R2
        MOV     ?V0 + 1,R3
        MOV     A,?V0 + 0
        ORL     A,?V0 + 1
        JNZ     $+5
        LJMP    ??GenericApp_ProcessEvent_5 & 0xFFFF
        MOV     DPL,?V0 + 0
        MOV     DPH,?V0 + 1
        MOVX    A,@DPTR
        ADD     A,#-0x1a
        JNZ     $+5
        LJMP    ??GenericApp_ProcessEvent_6 & 0xFFFF
        ADD     A,#0x5a
        JNZ     $+5
        LJMP    ??GenericApp_ProcessEvent_7 & 0xFFFF
        ADD     A,#-0x11
        JZ      ??GenericApp_ProcessEvent_2
        ADD     A,#-0x2
        JNZ     ??GenericApp_ProcessEvent_4
        MOV     A,?V0 + 0
        ADD     A,#0xc
        MOV     DPL,A
        MOV     A,?V0 + 1
        ADDC    A,#0x0
        MOV     DPH,A
        MOVX    A,@DPTR
        MOV     ?V0 + 2,A
        INC     DPTR
        MOVX    A,@DPTR
        MOV     ?V0 + 3,A
        MOV     R0,#?V0 + 2
        LCALL   ?US_SWITCH_SPARSE
`?<Jumptable for GenericApp_ProcessEvent>_0`:
        DATA
        DATA16
        DATA
        DATA16
        DATA
        DATA16
        DW        0
        DATA
        DATA16
        DATA
        DATA16
        DATA
        DATA16
        DW        2
        DATA
        DATA16
        DATA
        DATA16
        DATA
        DATA16
        DW        32774
        DATA
        DATA16
        DATA
        DATA16
        DATA
        DATA16
        DW        ??GenericApp_ProcessEvent_8
        DATA
        DATA16
        DATA
        DATA16
        DATA
        DATA16
        DW        32800
        DATA
        DATA16
        DATA
        DATA16
        DATA
        DATA16
        DW        ??GenericApp_ProcessEvent_9
        DATA
        DATA16
        DATA
        DATA16
        DW        ??GenericApp_ProcessEvent_4
        CODE
??GenericApp_ProcessEvent_8:
        ; Setup parameters for call to function ZDO_ParseEPListRsp
        MOV     R2,?V0 + 0
        MOV     R3,?V0 + 1
        LCALL   ??ZDO_ParseEPListRsp?relay
        MOV     ?V0 + 2,R2
        MOV     ?V0 + 3,R3
        MOV     A,R2
        ORL     A,?V0 + 3
        JZ      ??GenericApp_ProcessEvent_4
        MOV     DPL,R2
        MOV     DPH,R3
        MOVX    A,@DPTR
        JNZ     ??GenericApp_ProcessEvent_10
        INC     DPTR
        INC     DPTR
        INC     DPTR
        MOVX    A,@DPTR
        JZ      ??GenericApp_ProcessEvent_10
        MOV     DPTR,#GenericApp_DstAddr + 8
        MOV     A,#0x2
        MOVX    @DPTR,A
        MOV     DPL,R2
        MOV     DPH,R3
        INC     DPTR
        MOVX    A,@DPTR
        MOV     R0,A
        INC     DPTR
        MOVX    A,@DPTR
        MOV     R1,A
        MOV     DPTR,#GenericApp_DstAddr
        MOV     A,R0
        MOVX    @DPTR,A
        INC     DPTR
        MOV     A,R1
        MOVX    @DPTR,A
        MOV     DPL,R2
        MOV     DPH,R3
        INC     DPTR
        INC     DPTR
        INC     DPTR
        INC     DPTR
        MOVX    A,@DPTR
        MOV     DPTR,#GenericApp_DstAddr + 9
        MOVX    @DPTR,A
        ; Setup parameters for call to function HalLedSet
        MOV     R2,#0x1
        MOV     R1,#0x8
        LCALL   ??HalLedSet?relay
??GenericApp_ProcessEvent_10:
        ; Setup parameters for call to function osal_mem_free
        MOV     R2,?V0 + 2
        MOV     R3,?V0 + 3
        LCALL   ??osal_mem_free?relay
        LJMP    ??GenericApp_ProcessEvent_4 & 0xFFFF
??GenericApp_ProcessEvent_9:
        MOV     A,?V0 + 0
        ADD     A,#0x13
        MOV     DPL,A
        MOV     A,?V0 + 1
        ADDC    A,#0x0
        MOV     DPH,A
        MOVX    A,@DPTR
        MOV     R0,A
        INC     DPTR
        MOVX    A,@DPTR
        MOV     DPH,A
        MOV     DPL,R0
        MOVX    A,@DPTR
        JNZ     ??GenericApp_ProcessEvent_11
        ; Setup parameters for call to function HalLedSet
        MOV     R2,#0x1
??GenericApp_ProcessEvent_12:
        MOV     R1,#0x8
        LCALL   ??HalLedSet?relay
        LJMP    ??GenericApp_ProcessEvent_4 & 0xFFFF
??GenericApp_ProcessEvent_11:
        ; Setup parameters for call to function HalLedSet
        MOV     R2,#0x4
        SJMP    ??GenericApp_ProcessEvent_12
??GenericApp_ProcessEvent_7:
        INC     DPTR
        INC     DPTR
        INC     DPTR
        MOVX    A,@DPTR
        MOV     ?V0 + 4,A
        MOV     DPL,?V0 + 0
        MOV     DPH,?V0 + 1
        INC     DPTR
        INC     DPTR
        MOVX    A,@DPTR
        JZ      $+5
        LJMP    ??GenericApp_ProcessEvent_4 & 0xFFFF
        MOV     A,?V0 + 4
        MOV     C,0xE0 /* A   */.1
        JNC     ??GenericApp_ProcessEvent_13
        ; Setup parameters for call to function HalLedSet
        MOV     R2,#0x0
        MOV     R1,#0x8
        LCALL   ??HalLedSet?relay
        MOV     A,#0xa
        LCALL   ?XSTACK_DISP0_8
        MOV     A,#0x2
        MOVX    @DPTR,A
        LCALL   ?XSTACK_DISP0_8
        CLR     A
        MOVX    @DPTR,A
        INC     DPTR
        MOVX    @DPTR,A
        ; Setup parameters for call to function NLME_GetShortAddr
        LCALL   ??NLME_GetShortAddr?relay
        MOV     ?V0 + 2,R2
        MOV     ?V0 + 3,R3
        MOV     R4,?V0 + 2
        MOV     R5,?V0 + 3
        MOV     ?V0 + 2,#GenericApp_ClusterList & 0xff
        MOV     ?V0 + 3,#(GenericApp_ClusterList >> 8) & 0xff
        ; Setup parameters for call to function ZDP_EndDeviceBindReq
        MOV     ?V0 + 5,#0x0
        MOV     R0,#?V0 + 5
        LCALL   ?PUSH_XSTACK_I_ONE
        CFI CFA_XSP16 add(XSP16, 27)
        MOV     R0,#?V0 + 2
        LCALL   ?PUSH_XSTACK_I_TWO
        CFI CFA_XSP16 add(XSP16, 29)
        MOV     ?V0 + 5,#0x4
        MOV     R0,#?V0 + 5
        LCALL   ?PUSH_XSTACK_I_ONE
        CFI CFA_XSP16 add(XSP16, 30)
        MOV     R0,#?V0 + 2
        LCALL   ?PUSH_XSTACK_I_TWO
        CFI CFA_XSP16 add(XSP16, 32)
        MOV     ?V0 + 2,#0x4
        MOV     R0,#?V0 + 2
        LCALL   ?PUSH_XSTACK_I_ONE
        CFI CFA_XSP16 add(XSP16, 33)
        MOV     ?V0 + 3,#0xf
        MOV     R0,#?V0 + 2
        LCALL   ?PUSH_XSTACK_I_TWO
        CFI CFA_XSP16 add(XSP16, 35)
        MOV     DPTR,#GenericApp_epDesc
        MOVX    A,@DPTR
        MOV     R1,A
        MOV     A,#0xb
        LCALL   ?XSTACK_DISP0_8
        MOV     R2,DPL
        MOV     R3,DPH
        LCALL   ??ZDP_EndDeviceBindReq?relay
        MOV     A,#0x9
        LCALL   ?DEALLOC_XSTACK8
        CFI CFA_XSP16 add(XSP16, 26)
??GenericApp_ProcessEvent_13:
        MOV     A,?V0 + 4
        MOV     C,0xE0 /* A   */.3
        JC      $+5
        LJMP    ??GenericApp_ProcessEvent_4 & 0xFFFF
        ; Setup parameters for call to function HalLedSet
        MOV     R2,#0x0
        MOV     R1,#0x8
        LCALL   ??HalLedSet?relay
        MOV     A,#0xa
        LCALL   ?XSTACK_DISP0_8
        MOV     A,#0xf
        MOVX    @DPTR,A
        MOV     A,#0x2
        LCALL   ?XSTACK_DISP0_8
        MOV     A,#-0x1
        MOVX    @DPTR,A
        INC     DPTR
        MOVX    @DPTR,A
        MOV     ?V0 + 2,#GenericApp_ClusterList & 0xff
        MOV     ?V0 + 3,#(GenericApp_ClusterList >> 8) & 0xff
        ; Setup parameters for call to function ZDP_MatchDescReq
        MOV     ?V0 + 4,#0x0
        MOV     R0,#?V0 + 4
        LCALL   ?PUSH_XSTACK_I_ONE
        CFI CFA_XSP16 add(XSP16, 27)
        MOV     R0,#?V0 + 2
        LCALL   ?PUSH_XSTACK_I_TWO
        CFI CFA_XSP16 add(XSP16, 29)
        MOV     ?V0 + 4,#0x4
        MOV     R0,#?V0 + 4
        LCALL   ?PUSH_XSTACK_I_ONE
        CFI CFA_XSP16 add(XSP16, 30)
        MOV     R0,#?V0 + 2
        LCALL   ?PUSH_XSTACK_I_TWO
        CFI CFA_XSP16 add(XSP16, 32)
        MOV     ?V0 + 2,#0x4
        MOV     ?V0 + 3,#0xf
        MOV     R0,#?V0 + 2
        LCALL   ?PUSH_XSTACK_I_TWO
        CFI CFA_XSP16 add(XSP16, 34)
        MOV     R1,#0x4
        MOV     R4,#-0x1
        MOV     R5,#-0x1
        MOV     A,#0xa
        LCALL   ?XSTACK_DISP0_8
        MOV     R2,DPL
        MOV     R3,DPH
        LCALL   ??ZDP_MatchDescReq?relay
        MOV     A,#0x8
        LCALL   ?DEALLOC_XSTACK8
        CFI CFA_XSP16 add(XSP16, 26)
        LJMP    ??GenericApp_ProcessEvent_4 & 0xFFFF
??GenericApp_ProcessEvent_6:
        INC     DPTR
        INC     DPTR
        INC     DPTR
        INC     DPTR
        MOVX    A,@DPTR
        XRL     A,#0x1
        JNZ     ??GenericApp_ProcessEvent_14
        INC     DPTR
        MOVX    A,@DPTR
??GenericApp_ProcessEvent_14:
        JZ      $+5
        LJMP    ??GenericApp_ProcessEvent_4 & 0xFFFF
        ; Setup parameters for call to function osal_memcpy
        MOV     A,?V0 + 0
        ADD     A,#0x22
        MOV     DPL,A
        MOV     A,?V0 + 1
        ADDC    A,#0x0
        MOV     DPH,A
        MOVX    A,@DPTR
        MOV     ?V0 + 4,A
        INC     DPTR
        MOVX    A,@DPTR
        MOV     ?V0 + 5,A
        MOV     ?V0 + 6,#0x0
        MOV     R0,#?V0 + 4
        LCALL   ?PUSH_XSTACK_I_THREE
        CFI CFA_XSP16 add(XSP16, 29)
        MOV     R4,#0x2
        MOV     R5,#0x0
        MOV     A,#0x3
        LCALL   ?XSTACK_DISP0_8
        MOV     R2,DPL
        MOV     R3,DPH
        LCALL   ??osal_memcpy?relay
        MOV     A,#0x3
        LCALL   ?DEALLOC_XSTACK8
        CFI CFA_XSP16 add(XSP16, 26)
        MOV     DPL,?XSP + 0
        MOV     DPH,?XSP + 1
        MOVX    A,@DPTR
        MOV     R0,A
        MOV     DPTR,#bianhaoID
        MOVX    A,@DPTR
        XRL     A,R0
        JZ      $+5
        LJMP    ??GenericApp_ProcessEvent_4 & 0xFFFF
        MOV     A,#0x1
        LCALL   ?XSTACK_DISP0_8
        MOVX    A,@DPTR
        XRL     A,#0x31
        JNZ     ??GenericApp_ProcessEvent_15
        SETB    0x90.3
        LJMP    ??GenericApp_ProcessEvent_4 & 0xFFFF
??GenericApp_ProcessEvent_15:
        MOVX    A,@DPTR
        XRL     A,#0x30
        JNZ     ??GenericApp_ProcessEvent_16
        CLR     0x90.3
        LJMP    ??GenericApp_ProcessEvent_4 & 0xFFFF
??GenericApp_ProcessEvent_16:
        MOVX    A,@DPTR
        XRL     A,#0x34
        JNZ     ??GenericApp_ProcessEvent_17
        CLR     0x90.7
        LJMP    ??GenericApp_ProcessEvent_4 & 0xFFFF
??GenericApp_ProcessEvent_17:
        MOVX    A,@DPTR
        XRL     A,#0x33
        JZ      $+5
        LJMP    ??GenericApp_ProcessEvent_4 & 0xFFFF
        SETB    0x90.7
        LJMP    ??GenericApp_ProcessEvent_4 & 0xFFFF
//  333     }
//  334 
//  335     // return unprocessed events
//  336     return (events ^ SYS_EVENT_MSG);
??GenericApp_ProcessEvent_5:
        MOV     A,R6
        MOV     R2,A
        MOV     A,R7
        XRL     A,#0x80
??GenericApp_ProcessEvent_18:
        MOV     R3,A
        SJMP    ??GenericApp_ProcessEvent_19
//  337   }
//  338 
//  339   // Send a message out - This event is generated by a timer
//  340   //  (setup in GenericApp_Init()).
//  341   if ( events & GENERICAPP_SEND_MSG_EVT )
??GenericApp_ProcessEvent_0:
        MOV     A,R6
        MOV     C,0xE0 /* A   */.0
        JNC     ??GenericApp_ProcessEvent_20
//  342   {
//  343     // Send "the" message
//  344     //GenericApp_SendTheMessage();
//  345     GenericApp_Send_GAN_Message();//无线发送烟雾
//  346     GenericApp_Send_Guangqiang_Message();//无线发送光强
//  347     GenericApp_Send_rentihongwai_Message( );//我加的，人体红外无线发送函数
//  348     //GenericApp_Send_wenshidu_Message();
//  349     GenericApp_Send_wedu_Message( );//我加的，温度无线发送函数
//  350     GenericApp_Send_wenshidu_Message();
        ; Setup parameters for call to function GenericApp_Send_wenshidu_Message
        LCALL   ??GenericApp_Send_wenshidu_Message?relay
//  351     // Setup to send message again
//  352     osal_start_timerEx( GenericApp_TaskID,
//  353                         GENERICAPP_SEND_MSG_EVT,
//  354                         GENERICAPP_SEND_MSG_TIMEOUT );
        ; Setup parameters for call to function osal_start_timerEx
        MOV     R4,#-0x78
        MOV     R5,#0x13
        MOV     R2,#0x1
        MOV     R3,#0x0
        MOV     DPTR,#GenericApp_TaskID
        MOVX    A,@DPTR
        MOV     R1,A
        LCALL   ??osal_start_timerEx?relay
//  355 
//  356     // return unprocessed events
//  357     return (events ^ GENERICAPP_SEND_MSG_EVT);
        MOV     A,R6
        XRL     A,#0x1
        MOV     R2,A
        MOV     A,R7
        SJMP    ??GenericApp_ProcessEvent_18
//  358   }
//  359 
//  360   
//  361 #if defined( IAR_ARMCM3_LM )
//  362   // Receive a message from the RTOS queue
//  363   if ( events & GENERICAPP_RTOS_MSG_EVT )
//  364   {
//  365     // Process message from RTOS queue
//  366     GenericApp_ProcessRtosMessage();
//  367 
//  368     // return unprocessed events
//  369     return (events ^ GENERICAPP_RTOS_MSG_EVT);
//  370   }
//  371 #endif
//  372 
//  373   // Discard unknown events
//  374   return 0;
??GenericApp_ProcessEvent_20:
        MOV     R2,#0x0
        MOV     R3,#0x0
??GenericApp_ProcessEvent_19:
        MOV     A,#0xb
        LCALL   ?DEALLOC_XSTACK8
        CFI CFA_XSP16 add(XSP16, 15)
        MOV     R7,#0x7
        LJMP    ?BANKED_LEAVE_XDATA
        CFI EndBlock cfiBlock1
        REQUIRE _A_P1
//  375 }
//  376 
//  377 /*********************************************************************
//  378  * Event Generation Functions
//  379  */
//  380 
//  381 /*********************************************************************
//  382  * @fn      GenericApp_ProcessZDOMsgs()
//  383  *
//  384  * @brief   Process response messages
//  385  *
//  386  * @param   none
//  387  *
//  388  * @return  none
//  389  */
//  390 static void GenericApp_ProcessZDOMsgs( zdoIncomingMsg_t *inMsg )
//  391 {
//  392   switch ( inMsg->clusterID )
//  393   {
//  394     case End_Device_Bind_rsp:
//  395       if ( ZDO_ParseBindRsp( inMsg ) == ZSuccess )
//  396       {
//  397         // Light LED
//  398         HalLedSet( HAL_LED_4, HAL_LED_MODE_ON );
//  399       }
//  400 #if defined( BLINK_LEDS )
//  401       else
//  402       {
//  403         // Flash LED to show failure
//  404         HalLedSet ( HAL_LED_4, HAL_LED_MODE_FLASH );
//  405       }
//  406 #endif
//  407       break;
//  408 
//  409     case Match_Desc_rsp:
//  410       {
//  411         ZDO_ActiveEndpointRsp_t *pRsp = ZDO_ParseEPListRsp( inMsg );
//  412         if ( pRsp )
//  413         {
//  414           if ( pRsp->status == ZSuccess && pRsp->cnt )
//  415           {
//  416             GenericApp_DstAddr.addrMode = (afAddrMode_t)Addr16Bit;
//  417             GenericApp_DstAddr.addr.shortAddr = pRsp->nwkAddr;
//  418             // Take the first endpoint, Can be changed to search through endpoints
//  419             GenericApp_DstAddr.endPoint = pRsp->epList[0];
//  420 
//  421             // Light LED
//  422             HalLedSet( HAL_LED_4, HAL_LED_MODE_ON );
//  423           }
//  424           osal_mem_free( pRsp );
//  425         }
//  426       }
//  427       break;
//  428   }
//  429 }
//  430 
//  431 /*********************************************************************
//  432  * @fn      GenericApp_HandleKeys
//  433  *
//  434  * @brief   Handles all key events for this device.
//  435  *
//  436  * @param   shift - true if in shift/alt.
//  437  * @param   keys - bit field for key events. Valid entries:
//  438  *                 HAL_KEY_SW_4
//  439  *                 HAL_KEY_SW_3
//  440  *                 HAL_KEY_SW_2
//  441  *                 HAL_KEY_SW_1
//  442  *
//  443  * @return  none
//  444  */
//  445 static void GenericApp_HandleKeys( uint8 shift, uint8 keys )
//  446 {
//  447   zAddrType_t dstAddr;
//  448 
//  449   // Shift is used to make each button/switch dual purpose.
//  450   if ( shift )
//  451   {
//  452     if ( keys & HAL_KEY_SW_1 )
//  453     {
//  454     }
//  455     if ( keys & HAL_KEY_SW_2 )
//  456     {
//  457     }
//  458     if ( keys & HAL_KEY_SW_3 )
//  459     {
//  460     }
//  461     if ( keys & HAL_KEY_SW_4 )
//  462     {
//  463     }
//  464   }
//  465   else
//  466   {
//  467     if ( keys & HAL_KEY_SW_1 )
//  468     {
//  469       // Since SW1 isn't used for anything else in this application...
//  470 #if defined( SWITCH1_BIND )
//  471       // we can use SW1 to simulate SW2 for devices that only have one switch,
//  472       keys |= HAL_KEY_SW_2;
//  473 #elif defined( SWITCH1_MATCH )
//  474       // or use SW1 to simulate SW4 for devices that only have one switch
//  475       keys |= HAL_KEY_SW_4;
//  476 #endif
//  477     }
//  478 
//  479     if ( keys & HAL_KEY_SW_2 )
//  480     {
//  481       HalLedSet ( HAL_LED_4, HAL_LED_MODE_OFF );
//  482 
//  483       // Initiate an End Device Bind Request for the mandatory endpoint
//  484       dstAddr.addrMode = Addr16Bit;
//  485       dstAddr.addr.shortAddr = 0x0000; // Coordinator
//  486       ZDP_EndDeviceBindReq( &dstAddr, NLME_GetShortAddr(),
//  487                             GenericApp_epDesc.endPoint,
//  488                             GENERICAPP_PROFID,
//  489                             GENERICAPP_MAX_CLUSTERS, (cId_t *)GenericApp_ClusterList,
//  490                             GENERICAPP_MAX_CLUSTERS, (cId_t *)GenericApp_ClusterList,
//  491                             FALSE );
//  492     }
//  493 
//  494     if ( keys & HAL_KEY_SW_3 )
//  495     {
//  496     }
//  497 
//  498     if ( keys & HAL_KEY_SW_4 )
//  499     {
//  500       HalLedSet ( HAL_LED_4, HAL_LED_MODE_OFF );
//  501       // Initiate a Match Description Request (Service Discovery)
//  502       dstAddr.addrMode = AddrBroadcast;
//  503       dstAddr.addr.shortAddr = NWK_BROADCAST_SHORTADDR;
//  504       ZDP_MatchDescReq( &dstAddr, NWK_BROADCAST_SHORTADDR,
//  505                         GENERICAPP_PROFID,
//  506                         GENERICAPP_MAX_CLUSTERS, (cId_t *)GenericApp_ClusterList,
//  507                         GENERICAPP_MAX_CLUSTERS, (cId_t *)GenericApp_ClusterList,
//  508                         FALSE );
//  509     }
//  510   }
//  511 }
//  512 
//  513 /*********************************************************************
//  514  * LOCAL FUNCTIONS
//  515  */
//  516 
//  517 /*********************************************************************
//  518  * @fn      GenericApp_MessageMSGCB
//  519  *
//  520  * @brief   Data message processor callback.  This function processes
//  521  *          any incoming data - probably from other devices.  So, based
//  522  *          on cluster ID, perform the intended action.
//  523  *
//  524  * @param   none
//  525  *
//  526  * @return  none
//  527  */
//  528 static void GenericApp_MessageMSGCB( afIncomingMSGPacket_t *pkt )
//  529 {
//  530   uint8 buffer[2];
//  531   switch ( pkt->clusterId )
//  532   {
//  533     case GENERICAPP_CLUSTERID:
//  534             osal_memcpy(buffer,pkt->cmd.Data,2);
//  535                 if((buffer[0] == bianhaoID) & (buffer[1] == 0x31))//如果是1和1，就表示是1号节点让继电器开
//  536                     {
//  537                      P1_3 = 1 ;//控制P13高电平，从而控制继电器闭合
//  538                     }
//  539                 if((buffer[0] == bianhaoID ) & (buffer[1] == 0x30))//如果是1和0，就表示是1号节点让继电器关
//  540                     {
//  541                       P1_3 = 0 ;//控制P13低电平，从而控制继电器断开。
//  542                     }
//  543                  if((buffer[0] == bianhaoID) & (buffer[1] == 0x34))
//  544                     {
//  545                      P1_7 = 0 ;
//  546                     }
//  547                  if((buffer[0] == bianhaoID) & (buffer[1] == 0x33))
//  548                     {
//  549                      P1_7 = 1 ;
//  550                     }
//  551       break;
//  552   }
//  553   
//  554   /*switch ( pkt->clusterId )
//  555   {
//  556     case GENERICAPP_CLUSTERID:
//  557       // "the" message
//  558 #if defined( LCD_SUPPORTED )
//  559       HalLcdWriteScreen( (char*)pkt->cmd.Data, "rcvd" );
//  560 #elif defined( WIN32 )
//  561       WPRINTSTR( pkt->cmd.Data );
//  562 #endif
//  563       break;
//  564   }*/
//  565 }
//  566 
//  567 /*********************************************************************
//  568  * @fn      GenericApp_Send_wenshidu_Message
//  569  *
//  570  * @brief   point to point.
//  571  *
//  572  * @param   none
//  573  *
//  574  * @return  none
//  575  */

        RSEG BANKED_CODE:CODE:NOROOT(0)
//  576 void GenericApp_Send_wenshidu_Message( void )//无线发送函数
GenericApp_Send_wenshidu_Message:
        CFI Block cfiBlock2 Using cfiCommon0
        CFI Function GenericApp_Send_wenshidu_Message
        CODE
//  577 {
        FUNCALL GenericApp_Send_wenshidu_Message, DHT11
        LOCFRAME ISTACK, 0, STACK
        LOCFRAME PSTACK, 0, STACK
        LOCFRAME XSTACK, 24, STACK
        LOCFRAME IOVERLAY, 0, STATIC
        LOCFRAME DOVERLAY, 0, STATIC
        ARGFRAME ISTACK, 0, STACK
        ARGFRAME PSTACK, 0, STACK
        ARGFRAME XSTACK, 24, STACK
        ARGFRAME IOVERLAY, 0, STATIC
        ARGFRAME DOVERLAY, 0, STATIC
        FUNCALL GenericApp_Send_wenshidu_Message, myApp_ReadLightLevel
        LOCFRAME ISTACK, 0, STACK
        LOCFRAME PSTACK, 0, STACK
        LOCFRAME XSTACK, 24, STACK
        LOCFRAME IOVERLAY, 0, STATIC
        LOCFRAME DOVERLAY, 0, STATIC
        ARGFRAME ISTACK, 0, STACK
        ARGFRAME PSTACK, 0, STACK
        ARGFRAME XSTACK, 24, STACK
        ARGFRAME IOVERLAY, 0, STATIC
        ARGFRAME DOVERLAY, 0, STATIC
        FUNCALL GenericApp_Send_wenshidu_Message, myApp_ReadGasLevel
        LOCFRAME ISTACK, 0, STACK
        LOCFRAME PSTACK, 0, STACK
        LOCFRAME XSTACK, 24, STACK
        LOCFRAME IOVERLAY, 0, STATIC
        LOCFRAME DOVERLAY, 0, STATIC
        ARGFRAME ISTACK, 0, STACK
        ARGFRAME PSTACK, 0, STACK
        ARGFRAME XSTACK, 24, STACK
        ARGFRAME IOVERLAY, 0, STATIC
        ARGFRAME DOVERLAY, 0, STATIC
        FUNCALL GenericApp_Send_wenshidu_Message, AF_DataRequest
        LOCFRAME ISTACK, 0, STACK
        LOCFRAME PSTACK, 0, STACK
        LOCFRAME XSTACK, 33, STACK
        LOCFRAME IOVERLAY, 0, STATIC
        LOCFRAME DOVERLAY, 0, STATIC
        ARGFRAME ISTACK, 0, STACK
        ARGFRAME PSTACK, 0, STACK
        ARGFRAME XSTACK, 33, STACK
        ARGFRAME IOVERLAY, 0, STATIC
        ARGFRAME DOVERLAY, 0, STATIC
        MOV     A,#-0xa
        LCALL   ?BANKED_ENTER_XDATA
        CFI DPH0 load(1, XDATA, add(CFA_XSP16, literal(-1)))
        CFI DPL0 load(1, XDATA, add(CFA_XSP16, literal(-2)))
        CFI ?BRET_EXT load(1, XDATA, add(CFA_XSP16, literal(-3)))
        CFI ?RET_HIGH load(1, XDATA, add(CFA_XSP16, literal(-4)))
        CFI ?RET_LOW load(1, XDATA, add(CFA_XSP16, literal(-5)))
        CFI R7 load(1, XDATA, add(CFA_XSP16, literal(-6)))
        CFI V1 load(1, XDATA, add(CFA_XSP16, literal(-7)))
        CFI V0 load(1, XDATA, add(CFA_XSP16, literal(-8)))
        CFI VB load(1, XDATA, add(CFA_XSP16, literal(-9)))
        CFI R6 load(1, XDATA, add(CFA_XSP16, literal(-10)))
        CFI CFA_SP SP+0
        CFI CFA_XSP16 add(XSP16, 10)
        ; Saved register size: 10
        ; Auto size: 14
        MOV     A,#-0xe
        LCALL   ?ALLOC_XSTACK8
        CFI CFA_XSP16 add(XSP16, 24)
//  578  byte strTemp[14] ;//定义字符串长度
//  579  uint16 LightLevel;
//  580  uint16 GasLevel;
//  581 
//  582   DHT11();             //获取温湿度
        ; Setup parameters for call to function DHT11
        LCALL   ??DHT11?relay
//  583  LightLevel = myApp_ReadLightLevel();//读取光强值
        ; Setup parameters for call to function myApp_ReadLightLevel
        LCALL   ??myApp_ReadLightLevel?relay
//  584    GasLevel = myApp_ReadGasLevel();
        ; Setup parameters for call to function myApp_ReadGasLevel
        LCALL   ??myApp_ReadGasLevel?relay
        MOV     ?V0 + 0,R2
        MOV     ?V0 + 1,R3
        MOV     R4,?V0 + 0
        MOV     R5,?V0 + 1
//  585   //将各个值的转换成字符串 
//  586  strTemp[0] = bianhaoID;//数据首位显示节点编号
        MOV     DPTR,#bianhaoID
        MOVX    A,@DPTR
        MOV     DPL,?XSP + 0
        MOV     DPH,?XSP + 1
        MOVX    @DPTR,A
//  587  strTemp[1] = ':';
        MOV     A,#0x1
        LCALL   ?XSTACK_DISP0_8
        MOV     A,#0x3a
        MOVX    @DPTR,A
//  588  
//  589  strTemp[2] = 't';
        MOV     A,#0x2
        LCALL   ?XSTACK_DISP0_8
        MOV     A,#0x74
        MOVX    @DPTR,A
//  590  strTemp[3] = wendu_shi+0x30;//温度值
        MOV     DPTR,#wendu_shi
        MOVX    A,@DPTR
        ADD     A,#0x30
        PUSH    A
        CFI CFA_SP SP+-1
        MOV     A,#0x3
        LCALL   ?XSTACK_DISP0_8
        POP     A
        CFI CFA_SP SP+0
        MOVX    @DPTR,A
//  591  strTemp[4] = wendu_ge+0x30;
        MOV     DPTR,#wendu_ge
        MOVX    A,@DPTR
        ADD     A,#0x30
        PUSH    A
        CFI CFA_SP SP+-1
        MOV     A,#0x4
        LCALL   ?XSTACK_DISP0_8
        POP     A
        CFI CFA_SP SP+0
        MOVX    @DPTR,A
//  592  strTemp[5] = 'h';
        MOV     A,#0x5
        LCALL   ?XSTACK_DISP0_8
        MOV     A,#0x68
        MOVX    @DPTR,A
//  593  strTemp[6] = shidu_shi+0x30;//湿度值
        MOV     DPTR,#shidu_shi
        MOVX    A,@DPTR
        ADD     A,#0x30
        PUSH    A
        CFI CFA_SP SP+-1
        MOV     A,#0x6
        LCALL   ?XSTACK_DISP0_8
        POP     A
        CFI CFA_SP SP+0
        MOVX    @DPTR,A
//  594  strTemp[7] = shidu_ge+0x30;
        MOV     DPTR,#shidu_ge
        MOVX    A,@DPTR
        ADD     A,#0x30
        PUSH    A
        CFI CFA_SP SP+-1
        MOV     A,#0x7
        LCALL   ?XSTACK_DISP0_8
        POP     A
        CFI CFA_SP SP+0
        MOVX    @DPTR,A
//  595  
//  596  //strTemp[6] = LightLevel / 100 + '0';//光强值
//  597  //strTemp[7] = LightLevel / 10%10 + '0';
//  598  //strTemp[8] = LightLevel % 10 + '0';
//  599  strTemp[8] = 's';
        MOV     A,#0x8
        LCALL   ?XSTACK_DISP0_8
        MOV     A,#0x73
        MOVX    @DPTR,A
//  600  strTemp[9] = GasLevel / 100 + '0';//烟雾值
        MOV     A,R4
        MOV     R0,A
        MOV     A,R5
        MOV     R1,A
        MOV     R2,#0x64
        MOV     R3,#0x0
        LCALL   ?US_DIV_MOD
        MOV     A,R0
        ADD     A,#0x30
        PUSH    A
        CFI CFA_SP SP+-1
        MOV     A,#0x9
        LCALL   ?XSTACK_DISP0_8
        POP     A
        CFI CFA_SP SP+0
        LCALL   ?Subroutine1 & 0xFFFF
//  601  strTemp[10] = GasLevel / 10%10 + '0';
??CrossCallReturnLabel_0:
        LCALL   ?US_DIV_MOD
        MOV     R2,#0xa
        MOV     R3,#0x0
        LCALL   ?US_DIV_MOD
        MOV     A,R2
        ADD     A,#0x30
        PUSH    A
        CFI CFA_SP SP+-1
        MOV     A,#0xa
        LCALL   ?XSTACK_DISP0_8
        POP     A
        CFI CFA_SP SP+0
        LCALL   ?Subroutine1 & 0xFFFF
//  602  strTemp[11] = GasLevel % 10 + '0';
??CrossCallReturnLabel_1:
        LCALL   ?US_DIV_MOD
        MOV     A,R2
        ADD     A,#0x30
        PUSH    A
        CFI CFA_SP SP+-1
        MOV     A,#0xb
        LCALL   ?XSTACK_DISP0_8
        POP     A
        CFI CFA_SP SP+0
        MOVX    @DPTR,A
//  603 
//  604 strTemp[12] = 'i';
        MOV     A,#0xc
        LCALL   ?XSTACK_DISP0_8
        MOV     A,#0x69
        MOVX    @DPTR,A
//  605   if(P0_5 == 0) //人体红外传感器没有检测到人
        MOV     C,0x80.5
        MOV     A,#0xd
        JC      ??GenericApp_Send_wenshidu_Message_0
//  606   {
//  607     strTemp[13] = '0' ; //输出字符0
        LCALL   ?XSTACK_DISP0_8
        MOV     A,#0x30
        SJMP    ??GenericApp_Send_wenshidu_Message_1
//  608   }
//  609   else    //人体红外传感器检测到人
//  610   {
//  611     strTemp[13] = '1' ;  //输出字符1
??GenericApp_Send_wenshidu_Message_0:
        LCALL   ?XSTACK_DISP0_8
        MOV     A,#0x31
??GenericApp_Send_wenshidu_Message_1:
        MOVX    @DPTR,A
//  612   }
//  613  
//  614   AF_DataRequest( &GenericApp_DstAddr, &GenericApp_epDesc,
//  615                        GENERICAPP_wenshidu_CLUSTERID,
//  616                        14,
//  617                        strTemp,
//  618                        &GenericApp_TransID,
//  619                        AF_DISCV_ROUTE,
//  620                        AF_DEFAULT_RADIUS ) ;
        ; Setup parameters for call to function AF_DataRequest
        MOV     ?V0 + 0,#0x1e
        MOV     R0,#?V0 + 0
        LCALL   ?PUSH_XSTACK_I_ONE
        CFI CFA_XSP16 add(XSP16, 25)
        MOV     ?V0 + 0,#GenericApp_TransID & 0xff
        MOV     ?V0 + 1,#(GenericApp_TransID >> 8) & 0xff
        MOV     R0,#?V0 + 0
        LCALL   ?PUSH_XSTACK_I_TWO
        CFI CFA_XSP16 add(XSP16, 27)
        MOV     A,#0x3
        LCALL   ?XSTACK_DISP0_8
        MOV     ?V0 + 0,DPL
        MOV     ?V0 + 1,DPH
        MOV     R0,#?V0 + 0
        LCALL   ?PUSH_XSTACK_I_TWO
        CFI CFA_XSP16 add(XSP16, 29)
        MOV     ?V0 + 0,#0xe
        MOV     ?V0 + 1,#0x0
        MOV     R0,#?V0 + 0
        LCALL   ?PUSH_XSTACK_I_TWO
        CFI CFA_XSP16 add(XSP16, 31)
        MOV     ?V0 + 0,#0x3
        MOV     R0,#?V0 + 0
        LCALL   ?PUSH_XSTACK_I_TWO
        CFI CFA_XSP16 add(XSP16, 33)
        MOV     R1,#0x20
        MOV     R4,#GenericApp_epDesc & 0xff
        MOV     R5,#(GenericApp_epDesc >> 8) & 0xff
        MOV     R2,#GenericApp_DstAddr & 0xff
        MOV     R3,#(GenericApp_DstAddr >> 8) & 0xff
        LCALL   ??AF_DataRequest?relay
        MOV     A,#0x9
        LCALL   ?DEALLOC_XSTACK8
        CFI CFA_XSP16 add(XSP16, 24)
//  621 }
        MOV     A,#0xe
        LCALL   ?DEALLOC_XSTACK8
        CFI CFA_XSP16 add(XSP16, 10)
        MOV     R7,#0x2
        LJMP    ?BANKED_LEAVE_XDATA
        CFI EndBlock cfiBlock2
        REQUIRE _A_P0

        RSEG BANKED_CODE:CODE:NOROOT(0)
?Subroutine1:
        CFI Block cfiCond3 Using cfiCommon0
        CFI NoFunction
        CFI Conditional ??CrossCallReturnLabel_0
        CFI R6 load(1, XDATA, add(CFA_XSP16, literal(-10)))
        CFI VB load(1, XDATA, add(CFA_XSP16, literal(-9)))
        CFI V0 load(1, XDATA, add(CFA_XSP16, literal(-8)))
        CFI V1 load(1, XDATA, add(CFA_XSP16, literal(-7)))
        CFI R7 load(1, XDATA, add(CFA_XSP16, literal(-6)))
        CFI ?RET_LOW load(1, XDATA, add(CFA_XSP16, literal(-5)))
        CFI ?RET_HIGH load(1, XDATA, add(CFA_XSP16, literal(-4)))
        CFI ?BRET_EXT load(1, XDATA, add(CFA_XSP16, literal(-3)))
        CFI DPL0 load(1, XDATA, add(CFA_XSP16, literal(-2)))
        CFI DPH0 load(1, XDATA, add(CFA_XSP16, literal(-1)))
        CFI CFA_SP SP+0
        CFI CFA_XSP16 add(XSP16, 24)
        CFI Block cfiCond4 Using cfiCommon0
        CFI (cfiCond4) NoFunction
        CFI (cfiCond4) Conditional ??CrossCallReturnLabel_1
        CFI (cfiCond4) R6 load(1, XDATA, add(CFA_XSP16, literal(-10)))
        CFI (cfiCond4) VB load(1, XDATA, add(CFA_XSP16, literal(-9)))
        CFI (cfiCond4) V0 load(1, XDATA, add(CFA_XSP16, literal(-8)))
        CFI (cfiCond4) V1 load(1, XDATA, add(CFA_XSP16, literal(-7)))
        CFI (cfiCond4) R7 load(1, XDATA, add(CFA_XSP16, literal(-6)))
        CFI (cfiCond4) ?RET_LOW load(1, XDATA, add(CFA_XSP16, literal(-5)))
        CFI (cfiCond4) ?RET_HIGH load(1, XDATA, add(CFA_XSP16, literal(-4)))
        CFI (cfiCond4) ?BRET_EXT load(1, XDATA, add(CFA_XSP16, literal(-3)))
        CFI (cfiCond4) DPL0 load(1, XDATA, add(CFA_XSP16, literal(-2)))
        CFI (cfiCond4) DPH0 load(1, XDATA, add(CFA_XSP16, literal(-1)))
        CFI (cfiCond4) CFA_SP SP+0
        CFI (cfiCond4) CFA_XSP16 add(XSP16, 24)
        CFI Block cfiPicker5 Using cfiCommon1
        CFI (cfiPicker5) NoFunction
        CFI (cfiPicker5) Picker
        MOVX    @DPTR,A
        MOV     A,R4
        MOV     R0,A
        MOV     A,R5
        MOV     R1,A
        MOV     R2,#0xa
        MOV     R3,#0x0
        RET
        CFI EndBlock cfiCond3
        CFI EndBlock cfiCond4
        CFI EndBlock cfiPicker5
//  622 

        RSEG BANKED_CODE:CODE:NOROOT(0)
//  623 void GenericApp_Send_Guangqiang_Message(void)//无线发送光强信息函数
GenericApp_Send_Guangqiang_Message:
        CFI Block cfiBlock6 Using cfiCommon0
        CFI Function GenericApp_Send_Guangqiang_Message
        CODE
//  624 {
        ; Saved register size: 0
        ; Auto size: 0
//  625  /* unsigned char theMessageData[3] ;
//  626   //char guangqiang_xianshi[13];
//  627   uint16 LightLevel;
//  628   LightLevel = myApp_ReadLightLevel();//读取光强值
//  629   theMessageData[0] = LightLevel / 10 + '0';
//  630   theMessageData[1] = LightLevel % 10 + '0';
//  631   theMessageData[2] = bianhaoID;
//  632   
//  633   //osal_memcpy(guangqiang_xianshi, "guangqiang:", 11);
//  634   //osal_memcpy(&guangqiang_xianshi[11], theMessageData, 2);
//  635   //HalLcdWriteString(guangqiang_xianshi, 3);
//  636   
//  637   AF_DataRequest( &GenericApp_DstAddr, &GenericApp_epDesc,
//  638                        GenericApp_Guangqiang_CLUSTERID,
//  639                        3,
//  640                        theMessageData,
//  641                        &GenericApp_TransID,
//  642                        AF_DISCV_ROUTE, AF_DEFAULT_RADIUS );*/
//  643 }
        LJMP    ?BRET
        CFI EndBlock cfiBlock6
//  644 
//  645 /*********************************************************************
//  646  */
//  647 /*********************************************************************
//  648 读取光强函数
//  649 */

        RSEG BANKED_CODE:CODE:NOROOT(0)
//  650 uint16 myApp_ReadLightLevel( void )
myApp_ReadLightLevel:
        CFI Block cfiBlock7 Using cfiCommon0
        CFI Function myApp_ReadLightLevel
        CODE
//  651 {
        ; Saved register size: 0
        ; Auto size: 0
//  652   uint16 reading = 0;
//  653   
//  654   /* Enable channel */
//  655   ADCCFG |= 0x40;
        ORL     0xf2,#0x40
//  656   
//  657   /* writing to this register starts the extra conversion */
//  658   ADCCON3 = 0x86;
        MOV     0xb6,#-0x7a
//  659   
//  660   /* Wait for the conversion to be done */
//  661   while (!(ADCCON1 & 0x80));
??myApp_ReadLightLevel_0:
        MOV     A,0xb4
        MOV     C,0xE0 /* A   */.7
        JNC     ??myApp_ReadLightLevel_0
//  662   
//  663   /* Disable channel after done conversion */
//  664   ADCCFG &= (0x40 ^ 0xFF);
        ANL     0xf2,#0xbf
        CFI EndBlock cfiBlock7
//  665   
//  666   /* Read the result */
//  667   reading = ADCH;
        REQUIRE ?Subroutine0
        REQUIRE ADCCFG
        REQUIRE ADCCON3
        REQUIRE ADCCON1
        REQUIRE ADCH
        ; // Fall through to label ?Subroutine0
//  668   reading |= (int16) (ADCH << 8); 
//  669   
//  670   reading >>= 8;
//  671   
//  672   return (reading);
//  673 } 

        RSEG BANKED_CODE:CODE:NOROOT(0)
?Subroutine0:
        CFI Block cfiBlock8 Using cfiCommon0
        CFI NoFunction
        MOV     A,0xbb
        MOV     A,0xbb
        MOV     R2,A
        CLR     A
        MOV     R3,A
        LJMP    ?BRET
        CFI EndBlock cfiBlock8
//  674 

        RSEG BANKED_CODE:CODE:NOROOT(0)
//  675 void GenericApp_Send_GAN_Message( void )//发送光强函数
GenericApp_Send_GAN_Message:
        CFI Block cfiBlock9 Using cfiCommon0
        CFI Function GenericApp_Send_GAN_Message
        CODE
//  676 {
        ; Saved register size: 0
        ; Auto size: 0
//  677 
//  678 }
        LJMP    ?BRET
        CFI EndBlock cfiBlock9
//  679 
//  680 /*********************************************************************
//  681 读烟雾浓度函数
//  682 */

        RSEG BANKED_CODE:CODE:NOROOT(0)
//  683 uint16 myApp_ReadGasLevel( void )
myApp_ReadGasLevel:
        CFI Block cfiBlock10 Using cfiCommon0
        CFI Function myApp_ReadGasLevel
        CODE
//  684 {
        ; Saved register size: 0
        ; Auto size: 0
//  685   uint16 reading = 0;
//  686   
//  687   /* Enable channel */
//  688   ADCCFG |= 0x80;
        ORL     0xf2,#0x80
//  689   
//  690   /* writing to this register starts the extra conversion */
//  691   ADCCON3 = 0x87;
        MOV     0xb6,#-0x79
//  692   
//  693   /* Wait for the conversion to be done */
//  694   while (!(ADCCON1 & 0x80));
??myApp_ReadGasLevel_0:
        MOV     A,0xb4
        MOV     C,0xE0 /* A   */.7
        JNC     ??myApp_ReadGasLevel_0
//  695   
//  696   /* Disable channel after done conversion */
//  697   ADCCFG &= (0x80 ^ 0xFF);
        ANL     0xf2,#0x7f
//  698   
//  699   /* Read the result */
//  700   reading = ADCH;
        SJMP    ?Subroutine0
        CFI EndBlock cfiBlock10
        REQUIRE ADCCFG
        REQUIRE ADCCON3
        REQUIRE ADCCON1
        REQUIRE ADCH
//  701   reading |= (int16) (ADCH << 8); 
//  702   
//  703   reading >>= 8;
//  704   
//  705   return (reading);
//  706 }
//  707 

        RSEG BANKED_CODE:CODE:NOROOT(0)
//  708 void GenericApp_Send_wedu_Message( void )//我加的，温度无线发送函数
GenericApp_Send_wedu_Message:
        CFI Block cfiBlock11 Using cfiCommon0
        CFI Function GenericApp_Send_wedu_Message
        CODE
//  709 {
        ; Saved register size: 0
        ; Auto size: 0
//  710 
//  711 }
        LJMP    ?BRET
        CFI EndBlock cfiBlock11
//  712 

        RSEG BANKED_CODE:CODE:NOROOT(0)
//  713 void GenericApp_Send_rentihongwai_Message( void )//我加的，人体红外无线发送函数
GenericApp_Send_rentihongwai_Message:
        CFI Block cfiBlock12 Using cfiCommon0
        CFI Function GenericApp_Send_rentihongwai_Message
        CODE
//  714 {
        ; Saved register size: 0
        ; Auto size: 0
//  715 
//  716   
//  717 }
        LJMP    ?BRET
        CFI EndBlock cfiBlock12

        RSEG XDATA_ID:CODE:NOROOT(0)
`?<Initializer for bianhaoID>`:
        DATA8
        DB 49

        RSEG BANK_RELAYS:CODE:REORDER:NOROOT(0)
??GenericApp_Init?relay:
        LCALL   ?BDISPATCH
        DATA
        DC24    GenericApp_Init

        RSEG BANK_RELAYS:CODE:REORDER:NOROOT(0)
??GenericApp_ProcessEvent?relay:
        LCALL   ?BDISPATCH
        DATA
        DC24    GenericApp_ProcessEvent

        RSEG BANK_RELAYS:CODE:REORDER:NOROOT(0)
??GenericApp_Send_wenshidu_Message?relay:
        LCALL   ?BDISPATCH
        DATA
        DC24    GenericApp_Send_wenshidu_Message

        RSEG BANK_RELAYS:CODE:REORDER:NOROOT(0)
??GenericApp_Send_Guangqiang_Message?relay:
        LCALL   ?BDISPATCH
        DATA
        DC24    GenericApp_Send_Guangqiang_Message

        RSEG BANK_RELAYS:CODE:REORDER:NOROOT(0)
??myApp_ReadLightLevel?relay:
        LCALL   ?BDISPATCH
        DATA
        DC24    myApp_ReadLightLevel

        RSEG BANK_RELAYS:CODE:REORDER:NOROOT(0)
??GenericApp_Send_GAN_Message?relay:
        LCALL   ?BDISPATCH
        DATA
        DC24    GenericApp_Send_GAN_Message

        RSEG BANK_RELAYS:CODE:REORDER:NOROOT(0)
??myApp_ReadGasLevel?relay:
        LCALL   ?BDISPATCH
        DATA
        DC24    myApp_ReadGasLevel

        RSEG BANK_RELAYS:CODE:REORDER:NOROOT(0)
??GenericApp_Send_wedu_Message?relay:
        LCALL   ?BDISPATCH
        DATA
        DC24    GenericApp_Send_wedu_Message

        RSEG BANK_RELAYS:CODE:REORDER:NOROOT(0)
??GenericApp_Send_rentihongwai_Message?relay:
        LCALL   ?BDISPATCH
        DATA
        DC24    GenericApp_Send_rentihongwai_Message

        RSEG XDATA_ROM_C:CONST:REORDER:NOROOT(0)
        DATA8
`?<Constant "GenericApp">`:
        DB "GenericApp"

        END
//  718 
//  719 /*********************************************************************
//  720  * @fn      GenericApp_SendTheMessage
//  721  *
//  722  * @brief   Send "the" message.
//  723  *
//  724  * @param   none
//  725  *
//  726  * @return  none
//  727  */
//  728 static void GenericApp_SendTheMessage( void )
//  729 {
//  730   char theMessageData[] = "Hello World";
//  731 
//  732   if ( AF_DataRequest( &GenericApp_DstAddr, &GenericApp_epDesc,
//  733                        GENERICAPP_CLUSTERID,
//  734                        (byte)osal_strlen( theMessageData ) + 1,
//  735                        (byte *)&theMessageData,
//  736                        &GenericApp_TransID,
//  737                        AF_DISCV_ROUTE, AF_DEFAULT_RADIUS ) == afStatus_SUCCESS )
//  738   {
//  739     // Successfully requested to be sent.
//  740   }
//  741   else
//  742   {
//  743     // Error occurred in request to send.
//  744   }
//  745 }
//  746 
//  747 #if defined( IAR_ARMCM3_LM )
//  748 /*********************************************************************
//  749  * @fn      GenericApp_ProcessRtosMessage
//  750  *
//  751  * @brief   Receive message from RTOS queue, send response back.
//  752  *
//  753  * @param   none
//  754  *
//  755  * @return  none
//  756  */
//  757 static void GenericApp_ProcessRtosMessage( void )
//  758 {
//  759   osalQueue_t inMsg;
//  760 
//  761   if ( osal_queue_receive( OsalQueue, &inMsg, 0 ) == pdPASS )
//  762   {
//  763     uint8 cmndId = inMsg.cmnd;
//  764     uint32 counter = osal_build_uint32( inMsg.cbuf, 4 );
//  765 
//  766     switch ( cmndId )
//  767     {
//  768       case CMD_INCR:
//  769         counter += 1;  /* Increment the incoming counter */
//  770                        /* Intentionally fall through next case */
//  771 
//  772       case CMD_ECHO:
//  773       {
//  774         userQueue_t outMsg;
//  775 
//  776         outMsg.resp = RSP_CODE | cmndId;  /* Response ID */
//  777         osal_buffer_uint32( outMsg.rbuf, counter );    /* Increment counter */
//  778         osal_queue_send( UserQueue1, &outMsg, 0 );  /* Send back to UserTask */
//  779         break;
//  780       }
//  781       
//  782       default:
//  783         break;  /* Ignore unknown command */    
//  784     }
//  785   }
//  786 }
//  787 #endif
//  788 
//  789 /*********************************************************************
//  790  */
// 
// 1 188 bytes in segment BANKED_CODE
//    54 bytes in segment BANK_RELAYS
//     7 bytes in segment SFR_AN
//     1 byte  in segment XDATA_I
//     1 byte  in segment XDATA_ID
//    31 bytes in segment XDATA_ROM_C
//    21 bytes in segment XDATA_Z
// 
// 1 243 bytes of CODE  memory
//    31 bytes of CONST memory
//     0 bytes of DATA  memory (+ 7 bytes shared)
//    22 bytes of XDATA memory
//
//Errors: none
//Warnings: 2
